
dz:     file format elf64-x86-64


Disassembly of section .init:

000000000000d000 <_init>:
    d000:	f3 0f 1e fa          	endbr64 
    d004:	48 83 ec 08          	sub    $0x8,%rsp
    d008:	48 8b 05 11 0f 03 00 	mov    0x30f11(%rip),%rax        # 3df20 <__gmon_start__>
    d00f:	48 85 c0             	test   %rax,%rax
    d012:	74 02                	je     d016 <_init+0x16>
    d014:	ff d0                	callq  *%rax
    d016:	48 83 c4 08          	add    $0x8,%rsp
    d01a:	c3                   	retq   

Disassembly of section .plt:

000000000000d020 <.plt>:
    d020:	ff 35 e2 0f 03 00    	pushq  0x30fe2(%rip)        # 3e008 <_GLOBAL_OFFSET_TABLE_+0x8>
    d026:	ff 25 e4 0f 03 00    	jmpq   *0x30fe4(%rip)        # 3e010 <_GLOBAL_OFFSET_TABLE_+0x10>
    d02c:	0f 1f 40 00          	nopl   0x0(%rax)

000000000000d030 <LLVMInitializeWebAssemblyTarget@plt>:
    d030:	ff 25 e2 0f 03 00    	jmpq   *0x30fe2(%rip)        # 3e018 <LLVMInitializeWebAssemblyTarget@LLVM_11>
    d036:	68 00 00 00 00       	pushq  $0x0
    d03b:	e9 e0 ff ff ff       	jmpq   d020 <.plt>

000000000000d040 <_ZNSt7__cxx1112basic_stringIcSt11char_traitsIcESaIcEEC1ERKS4_@plt>:
    d040:	ff 25 da 0f 03 00    	jmpq   *0x30fda(%rip)        # 3e020 <_ZNSt7__cxx1112basic_stringIcSt11char_traitsIcESaIcEEC1ERKS4_@GLIBCXX_3.4.21>
    d046:	68 01 00 00 00       	pushq  $0x1
    d04b:	e9 d0 ff ff ff       	jmpq   d020 <.plt>

000000000000d050 <LLVMInitializeX86TargetMC@plt>:
    d050:	ff 25 d2 0f 03 00    	jmpq   *0x30fd2(%rip)        # 3e028 <LLVMInitializeX86TargetMC@LLVM_11>
    d056:	68 02 00 00 00       	pushq  $0x2
    d05b:	e9 c0 ff ff ff       	jmpq   d020 <.plt>

000000000000d060 <_ZN6antlr43dfa3DFAC1EOS1_@plt>:
    d060:	ff 25 ca 0f 03 00    	jmpq   *0x30fca(%rip)        # 3e030 <_ZN6antlr43dfa3DFAC1EOS1_>
    d066:	68 03 00 00 00       	pushq  $0x3
    d06b:	e9 b0 ff ff ff       	jmpq   d020 <.plt>

000000000000d070 <__assert_fail@plt>:
    d070:	ff 25 c2 0f 03 00    	jmpq   *0x30fc2(%rip)        # 3e038 <__assert_fail@GLIBC_2.2.5>
    d076:	68 04 00 00 00       	pushq  $0x4
    d07b:	e9 a0 ff ff ff       	jmpq   d020 <.plt>

000000000000d080 <_ZN4llvm12FunctionType3getEPNS_4TypeENS_8ArrayRefIS2_EEb@plt>:
    d080:	ff 25 ba 0f 03 00    	jmpq   *0x30fba(%rip)        # 3e040 <_ZN4llvm12FunctionType3getEPNS_4TypeENS_8ArrayRefIS2_EEb@LLVM_11>
    d086:	68 05 00 00 00       	pushq  $0x5
    d08b:	e9 90 ff ff ff       	jmpq   d020 <.plt>

000000000000d090 <LLVMInitializeRISCVTargetInfo@plt>:
    d090:	ff 25 b2 0f 03 00    	jmpq   *0x30fb2(%rip)        # 3e048 <LLVMInitializeRISCVTargetInfo@LLVM_11>
    d096:	68 06 00 00 00       	pushq  $0x6
    d09b:	e9 80 ff ff ff       	jmpq   d020 <.plt>

000000000000d0a0 <_ZN4llvm15MCTargetOptionsC1Ev@plt>:
    d0a0:	ff 25 aa 0f 03 00    	jmpq   *0x30faa(%rip)        # 3e050 <_ZN4llvm15MCTargetOptionsC1Ev@LLVM_11>
    d0a6:	68 07 00 00 00       	pushq  $0x7
    d0ab:	e9 70 ff ff ff       	jmpq   d020 <.plt>

000000000000d0b0 <_ZNKSt7__cxx1112basic_stringIcSt11char_traitsIcESaIcEE4dataEv@plt>:
    d0b0:	ff 25 a2 0f 03 00    	jmpq   *0x30fa2(%rip)        # 3e058 <_ZNKSt7__cxx1112basic_stringIcSt11char_traitsIcESaIcEE4dataEv@GLIBCXX_3.4.21>
    d0b6:	68 08 00 00 00       	pushq  $0x8
    d0bb:	e9 60 ff ff ff       	jmpq   d020 <.plt>

000000000000d0c0 <__stack_chk_fail@plt>:
    d0c0:	ff 25 9a 0f 03 00    	jmpq   *0x30f9a(%rip)        # 3e060 <__stack_chk_fail@GLIBC_2.4>
    d0c6:	68 09 00 00 00       	pushq  $0x9
    d0cb:	e9 50 ff ff ff       	jmpq   d020 <.plt>

000000000000d0d0 <_ZN4llvm15SmallVectorBaseIjE8grow_podEPvmm@plt>:
    d0d0:	ff 25 92 0f 03 00    	jmpq   *0x30f92(%rip)        # 3e068 <_ZN4llvm15SmallVectorBaseIjE8grow_podEPvmm@LLVM_11>
    d0d6:	68 0a 00 00 00       	pushq  $0xa
    d0db:	e9 40 ff ff ff       	jmpq   d020 <.plt>

000000000000d0e0 <_ZNSt15__exception_ptr13exception_ptrC1ERKS0_@plt>:
    d0e0:	ff 25 8a 0f 03 00    	jmpq   *0x30f8a(%rip)        # 3e070 <_ZNSt15__exception_ptr13exception_ptrC1ERKS0_@CXXABI_1.3.3>
    d0e6:	68 0b 00 00 00       	pushq  $0xb
    d0eb:	e9 30 ff ff ff       	jmpq   d020 <.plt>

000000000000d0f0 <memset@plt>:
    d0f0:	ff 25 82 0f 03 00    	jmpq   *0x30f82(%rip)        # 3e078 <memset@GLIBC_2.2.5>
    d0f6:	68 0c 00 00 00       	pushq  $0xc
    d0fb:	e9 20 ff ff ff       	jmpq   d020 <.plt>

000000000000d100 <_ZN4llvm6ModuleD1Ev@plt>:
    d100:	ff 25 7a 0f 03 00    	jmpq   *0x30f7a(%rip)        # 3e080 <_ZN4llvm6ModuleD1Ev@LLVM_11>
    d106:	68 0d 00 00 00       	pushq  $0xd
    d10b:	e9 10 ff ff ff       	jmpq   d020 <.plt>

000000000000d110 <_ZN6antlr43atn15ATNDeserializerD1Ev@plt>:
    d110:	ff 25 72 0f 03 00    	jmpq   *0x30f72(%rip)        # 3e088 <_ZN6antlr43atn15ATNDeserializerD1Ev>
    d116:	68 0e 00 00 00       	pushq  $0xe
    d11b:	e9 00 ff ff ff       	jmpq   d020 <.plt>

000000000000d120 <_ZN4llvm11raw_ostream14flush_nonemptyEv@plt>:
    d120:	ff 25 6a 0f 03 00    	jmpq   *0x30f6a(%rip)        # 3e090 <_ZN4llvm11raw_ostream14flush_nonemptyEv@LLVM_11>
    d126:	68 0f 00 00 00       	pushq  $0xf
    d12b:	e9 f0 fe ff ff       	jmpq   d020 <.plt>

000000000000d130 <_ZN6antlr46Parser8exitRuleEv@plt>:
    d130:	ff 25 62 0f 03 00    	jmpq   *0x30f62(%rip)        # 3e098 <_ZN6antlr46Parser8exitRuleEv>
    d136:	68 10 00 00 00       	pushq  $0x10
    d13b:	e9 e0 fe ff ff       	jmpq   d020 <.plt>

000000000000d140 <LLVMInitializeX86Target@plt>:
    d140:	ff 25 5a 0f 03 00    	jmpq   *0x30f5a(%rip)        # 3e0a0 <LLVMInitializeX86Target@LLVM_11>
    d146:	68 11 00 00 00       	pushq  $0x11
    d14b:	e9 d0 fe ff ff       	jmpq   d020 <.plt>

000000000000d150 <_ZN4llvm6legacy11PassManager3runERNS_6ModuleE@plt>:
    d150:	ff 25 52 0f 03 00    	jmpq   *0x30f52(%rip)        # 3e0a8 <_ZN4llvm6legacy11PassManager3runERNS_6ModuleE@LLVM_11>
    d156:	68 12 00 00 00       	pushq  $0x12
    d15b:	e9 c0 fe ff ff       	jmpq   d020 <.plt>

000000000000d160 <_ZNKSt7__cxx1112basic_stringIcSt11char_traitsIcESaIcEE6lengthEv@plt>:
    d160:	ff 25 4a 0f 03 00    	jmpq   *0x30f4a(%rip)        # 3e0b0 <_ZNKSt7__cxx1112basic_stringIcSt11char_traitsIcESaIcEE6lengthEv@GLIBCXX_3.4.21>
    d166:	68 13 00 00 00       	pushq  $0x13
    d16b:	e9 b0 fe ff ff       	jmpq   d020 <.plt>

000000000000d170 <LLVMInitializeAArch64Target@plt>:
    d170:	ff 25 42 0f 03 00    	jmpq   *0x30f42(%rip)        # 3e0b8 <LLVMInitializeAArch64Target@LLVM_11>
    d176:	68 14 00 00 00       	pushq  $0x14
    d17b:	e9 a0 fe ff ff       	jmpq   d020 <.plt>

000000000000d180 <_ZSt20__throw_length_errorPKc@plt>:
    d180:	ff 25 3a 0f 03 00    	jmpq   *0x30f3a(%rip)        # 3e0c0 <_ZSt20__throw_length_errorPKc@GLIBCXX_3.4>
    d186:	68 15 00 00 00       	pushq  $0x15
    d18b:	e9 90 fe ff ff       	jmpq   d020 <.plt>

000000000000d190 <_ZN4llvm10DataLayout5clearEv@plt>:
    d190:	ff 25 32 0f 03 00    	jmpq   *0x30f32(%rip)        # 3e0c8 <_ZN4llvm10DataLayout5clearEv@LLVM_11>
    d196:	68 16 00 00 00       	pushq  $0x16
    d19b:	e9 80 fe ff ff       	jmpq   d020 <.plt>

000000000000d1a0 <LLVMInitializeNVPTXTargetInfo@plt>:
    d1a0:	ff 25 2a 0f 03 00    	jmpq   *0x30f2a(%rip)        # 3e0d0 <LLVMInitializeNVPTXTargetInfo@LLVM_11>
    d1a6:	68 17 00 00 00       	pushq  $0x17
    d1ab:	e9 70 fe ff ff       	jmpq   d020 <.plt>

000000000000d1b0 <_ZN4llvm24IRBuilderDefaultInserterD1Ev@plt>:
    d1b0:	ff 25 22 0f 03 00    	jmpq   *0x30f22(%rip)        # 3e0d8 <_ZN4llvm24IRBuilderDefaultInserterD1Ev@LLVM_11>
    d1b6:	68 18 00 00 00       	pushq  $0x18
    d1bb:	e9 60 fe ff ff       	jmpq   d020 <.plt>

000000000000d1c0 <_ZN4llvm16MetadataTracking7retrackEPvRNS_8MetadataES1_@plt>:
    d1c0:	ff 25 1a 0f 03 00    	jmpq   *0x30f1a(%rip)        # 3e0e0 <_ZN4llvm16MetadataTracking7retrackEPvRNS_8MetadataES1_@LLVM_11>
    d1c6:	68 19 00 00 00       	pushq  $0x19
    d1cb:	e9 50 fe ff ff       	jmpq   d020 <.plt>

000000000000d1d0 <LLVMInitializeSparcAsmParser@plt>:
    d1d0:	ff 25 12 0f 03 00    	jmpq   *0x30f12(%rip)        # 3e0e8 <LLVMInitializeSparcAsmParser@LLVM_11>
    d1d6:	68 1a 00 00 00       	pushq  $0x1a
    d1db:	e9 40 fe ff ff       	jmpq   d020 <.plt>

000000000000d1e0 <_ZN4llvm6legacy11PassManagerD1Ev@plt>:
    d1e0:	ff 25 0a 0f 03 00    	jmpq   *0x30f0a(%rip)        # 3e0f0 <_ZN4llvm6legacy11PassManagerD1Ev@LLVM_11>
    d1e6:	68 1b 00 00 00       	pushq  $0x1b
    d1eb:	e9 30 fe ff ff       	jmpq   d020 <.plt>

000000000000d1f0 <_ZN6antlr43dfa10VocabularyC1ERKSt6vectorINSt7__cxx1112basic_stringIcSt11char_traitsIcESaIcEEESaIS8_EESC_@plt>:
    d1f0:	ff 25 02 0f 03 00    	jmpq   *0x30f02(%rip)        # 3e0f8 <_ZN6antlr43dfa10VocabularyC1ERKSt6vectorINSt7__cxx1112basic_stringIcSt11char_traitsIcESaIcEEESaIS8_EESC_>
    d1f6:	68 1c 00 00 00       	pushq  $0x1c
    d1fb:	e9 20 fe ff ff       	jmpq   d020 <.plt>

000000000000d200 <__cxa_atexit@plt>:
    d200:	ff 25 fa 0e 03 00    	jmpq   *0x30efa(%rip)        # 3e100 <__cxa_atexit@GLIBC_2.2.5>
    d206:	68 1d 00 00 00       	pushq  $0x1d
    d20b:	e9 10 fe ff ff       	jmpq   d020 <.plt>

000000000000d210 <LLVMInitializeWebAssemblyTargetMC@plt>:
    d210:	ff 25 f2 0e 03 00    	jmpq   *0x30ef2(%rip)        # 3e108 <LLVMInitializeWebAssemblyTargetMC@LLVM_11>
    d216:	68 1e 00 00 00       	pushq  $0x1e
    d21b:	e9 00 fe ff ff       	jmpq   d020 <.plt>

000000000000d220 <_ZNK6antlr43atn3ATN16getDecisionStateEm@plt>:
    d220:	ff 25 ea 0e 03 00    	jmpq   *0x30eea(%rip)        # 3e110 <_ZNK6antlr43atn3ATN16getDecisionStateEm>
    d226:	68 1f 00 00 00       	pushq  $0x1f
    d22b:	e9 f0 fd ff ff       	jmpq   d020 <.plt>

000000000000d230 <_ZNSt15__exception_ptr13exception_ptrD1Ev@plt>:
    d230:	ff 25 e2 0e 03 00    	jmpq   *0x30ee2(%rip)        # 3e118 <_ZNSt15__exception_ptr13exception_ptrD1Ev@CXXABI_1.3.3>
    d236:	68 20 00 00 00       	pushq  $0x20
    d23b:	e9 e0 fd ff ff       	jmpq   d020 <.plt>

000000000000d240 <LLVMInitializeBPFTarget@plt>:
    d240:	ff 25 da 0e 03 00    	jmpq   *0x30eda(%rip)        # 3e120 <LLVMInitializeBPFTarget@LLVM_11>
    d246:	68 21 00 00 00       	pushq  $0x21
    d24b:	e9 d0 fd ff ff       	jmpq   d020 <.plt>

000000000000d250 <_ZNSaIcEC1Ev@plt>:
    d250:	ff 25 d2 0e 03 00    	jmpq   *0x30ed2(%rip)        # 3e128 <_ZNSaIcEC1Ev@GLIBCXX_3.4>
    d256:	68 22 00 00 00       	pushq  $0x22
    d25b:	e9 c0 fd ff ff       	jmpq   d020 <.plt>

000000000000d260 <LLVMInitializeAArch64AsmPrinter@plt>:
    d260:	ff 25 ca 0e 03 00    	jmpq   *0x30eca(%rip)        # 3e130 <LLVMInitializeAArch64AsmPrinter@LLVM_11>
    d266:	68 23 00 00 00       	pushq  $0x23
    d26b:	e9 b0 fd ff ff       	jmpq   d020 <.plt>

000000000000d270 <LLVMInitializeRISCVTarget@plt>:
    d270:	ff 25 c2 0e 03 00    	jmpq   *0x30ec2(%rip)        # 3e138 <LLVMInitializeRISCVTarget@LLVM_11>
    d276:	68 24 00 00 00       	pushq  $0x24
    d27b:	e9 a0 fd ff ff       	jmpq   d020 <.plt>

000000000000d280 <LLVMInitializePowerPCAsmParser@plt>:
    d280:	ff 25 ba 0e 03 00    	jmpq   *0x30eba(%rip)        # 3e140 <LLVMInitializePowerPCAsmParser@LLVM_11>
    d286:	68 25 00 00 00       	pushq  $0x25
    d28b:	e9 90 fd ff ff       	jmpq   d020 <.plt>

000000000000d290 <_ZN4llvm6Module13setDataLayoutERKNS_10DataLayoutE@plt>:
    d290:	ff 25 b2 0e 03 00    	jmpq   *0x30eb2(%rip)        # 3e148 <_ZN4llvm6Module13setDataLayoutERKNS_10DataLayoutE@LLVM_11>
    d296:	68 26 00 00 00       	pushq  $0x26
    d29b:	e9 80 fd ff ff       	jmpq   d020 <.plt>

000000000000d2a0 <_ZNK6antlr43atn3ATN20getNumberOfDecisionsEv@plt>:
    d2a0:	ff 25 aa 0e 03 00    	jmpq   *0x30eaa(%rip)        # 3e150 <_ZNK6antlr43atn3ATN20getNumberOfDecisionsEv>
    d2a6:	68 27 00 00 00       	pushq  $0x27
    d2ab:	e9 70 fd ff ff       	jmpq   d020 <.plt>

000000000000d2b0 <_ZN4llvm4UserdlEPv@plt>:
    d2b0:	ff 25 a2 0e 03 00    	jmpq   *0x30ea2(%rip)        # 3e158 <_ZN4llvm4UserdlEPv@LLVM_11>
    d2b6:	68 28 00 00 00       	pushq  $0x28
    d2bb:	e9 60 fd ff ff       	jmpq   d020 <.plt>

000000000000d2c0 <LLVMInitializeAVRTargetInfo@plt>:
    d2c0:	ff 25 9a 0e 03 00    	jmpq   *0x30e9a(%rip)        # 3e160 <LLVMInitializeAVRTargetInfo@LLVM_11>
    d2c6:	68 29 00 00 00       	pushq  $0x29
    d2cb:	e9 50 fd ff ff       	jmpq   d020 <.plt>

000000000000d2d0 <_ZN6antlr424FailedPredicateExceptionC1EPNS_6ParserERKNSt7__cxx1112basic_stringIcSt11char_traitsIcESaIcEEE@plt>:
    d2d0:	ff 25 92 0e 03 00    	jmpq   *0x30e92(%rip)        # 3e168 <_ZN6antlr424FailedPredicateExceptionC1EPNS_6ParserERKNSt7__cxx1112basic_stringIcSt11char_traitsIcESaIcEEE>
    d2d6:	68 2a 00 00 00       	pushq  $0x2a
    d2db:	e9 40 fd ff ff       	jmpq   d020 <.plt>

000000000000d2e0 <LLVMInitializeHexagonAsmPrinter@plt>:
    d2e0:	ff 25 8a 0e 03 00    	jmpq   *0x30e8a(%rip)        # 3e170 <LLVMInitializeHexagonAsmPrinter@LLVM_11>
    d2e6:	68 2b 00 00 00       	pushq  $0x2b
    d2eb:	e9 30 fd ff ff       	jmpq   d020 <.plt>

000000000000d2f0 <_ZN4llvm14raw_fd_ostreamC1ENS_9StringRefERSt10error_codeNS_3sys2fs9OpenFlagsE@plt>:
    d2f0:	ff 25 82 0e 03 00    	jmpq   *0x30e82(%rip)        # 3e178 <_ZN4llvm14raw_fd_ostreamC1ENS_9StringRefERSt10error_codeNS_3sys2fs9OpenFlagsE@LLVM_11>
    d2f6:	68 2c 00 00 00       	pushq  $0x2c
    d2fb:	e9 20 fd ff ff       	jmpq   d020 <.plt>

000000000000d300 <_ZN6antlr43atn3ATNaSEOS1_@plt>:
    d300:	ff 25 7a 0e 03 00    	jmpq   *0x30e7a(%rip)        # 3e180 <_ZN6antlr43atn3ATNaSEOS1_>
    d306:	68 2d 00 00 00       	pushq  $0x2d
    d30b:	e9 10 fd ff ff       	jmpq   d020 <.plt>

000000000000d310 <LLVMInitializeNVPTXAsmPrinter@plt>:
    d310:	ff 25 72 0e 03 00    	jmpq   *0x30e72(%rip)        # 3e188 <LLVMInitializeNVPTXAsmPrinter@LLVM_11>
    d316:	68 2e 00 00 00       	pushq  $0x2e
    d31b:	e9 00 fd ff ff       	jmpq   d020 <.plt>

000000000000d320 <LLVMInitializeMSP430TargetMC@plt>:
    d320:	ff 25 6a 0e 03 00    	jmpq   *0x30e6a(%rip)        # 3e190 <LLVMInitializeMSP430TargetMC@LLVM_11>
    d326:	68 2f 00 00 00       	pushq  $0x2f
    d32b:	e9 f0 fc ff ff       	jmpq   d020 <.plt>

000000000000d330 <LLVMInitializeAMDGPUTargetInfo@plt>:
    d330:	ff 25 62 0e 03 00    	jmpq   *0x30e62(%rip)        # 3e198 <LLVMInitializeAMDGPUTargetInfo@LLVM_11>
    d336:	68 30 00 00 00       	pushq  $0x30
    d33b:	e9 e0 fc ff ff       	jmpq   d020 <.plt>

000000000000d340 <_ZN6antlr46ParserC2EPNS_11TokenStreamE@plt>:
    d340:	ff 25 5a 0e 03 00    	jmpq   *0x30e5a(%rip)        # 3e1a0 <_ZN6antlr46ParserC2EPNS_11TokenStreamE>
    d346:	68 31 00 00 00       	pushq  $0x31
    d34b:	e9 d0 fc ff ff       	jmpq   d020 <.plt>

000000000000d350 <_ZNK6antlr43dfa10Vocabulary14getLiteralNameB5cxx11Em@plt>:
    d350:	ff 25 52 0e 03 00    	jmpq   *0x30e52(%rip)        # 3e1a8 <_ZNK6antlr43dfa10Vocabulary14getLiteralNameB5cxx11Em>
    d356:	68 32 00 00 00       	pushq  $0x32
    d35b:	e9 c0 fc ff ff       	jmpq   d020 <.plt>

000000000000d360 <_ZStlsIcSt11char_traitsIcESaIcEERSt13basic_ostreamIT_T0_ES7_RKNSt7__cxx1112basic_stringIS4_S5_T1_EE@plt>:
    d360:	ff 25 4a 0e 03 00    	jmpq   *0x30e4a(%rip)        # 3e1b0 <_ZStlsIcSt11char_traitsIcESaIcEERSt13basic_ostreamIT_T0_ES7_RKNSt7__cxx1112basic_stringIS4_S5_T1_EE@GLIBCXX_3.4.21>
    d366:	68 33 00 00 00       	pushq  $0x33
    d36b:	e9 b0 fc ff ff       	jmpq   d020 <.plt>

000000000000d370 <LLVMInitializeHexagonAsmParser@plt>:
    d370:	ff 25 42 0e 03 00    	jmpq   *0x30e42(%rip)        # 3e1b8 <LLVMInitializeHexagonAsmParser@LLVM_11>
    d376:	68 34 00 00 00       	pushq  $0x34
    d37b:	e9 a0 fc ff ff       	jmpq   d020 <.plt>

000000000000d380 <_ZSt17current_exceptionv@plt>:
    d380:	ff 25 3a 0e 03 00    	jmpq   *0x30e3a(%rip)        # 3e1c0 <_ZSt17current_exceptionv@CXXABI_1.3.3>
    d386:	68 35 00 00 00       	pushq  $0x35
    d38b:	e9 90 fc ff ff       	jmpq   d020 <.plt>

000000000000d390 <LLVMInitializeMipsTarget@plt>:
    d390:	ff 25 32 0e 03 00    	jmpq   *0x30e32(%rip)        # 3e1c8 <LLVMInitializeMipsTarget@LLVM_11>
    d396:	68 36 00 00 00       	pushq  $0x36
    d39b:	e9 80 fc ff ff       	jmpq   d020 <.plt>

000000000000d3a0 <_ZNSt14basic_ifstreamIcSt11char_traitsIcEEC1Ev@plt>:
    d3a0:	ff 25 2a 0e 03 00    	jmpq   *0x30e2a(%rip)        # 3e1d0 <_ZNSt14basic_ifstreamIcSt11char_traitsIcEEC1Ev@GLIBCXX_3.4>
    d3a6:	68 37 00 00 00       	pushq  $0x37
    d3ab:	e9 70 fc ff ff       	jmpq   d020 <.plt>

000000000000d3b0 <__cxa_allocate_exception@plt>:
    d3b0:	ff 25 22 0e 03 00    	jmpq   *0x30e22(%rip)        # 3e1d8 <__cxa_allocate_exception@CXXABI_1.3>
    d3b6:	68 38 00 00 00       	pushq  $0x38
    d3bb:	e9 60 fc ff ff       	jmpq   d020 <.plt>

000000000000d3c0 <_ZN4llvm10BasicBlockC1ERNS_11LLVMContextERKNS_5TwineEPNS_8FunctionEPS0_@plt>:
    d3c0:	ff 25 1a 0e 03 00    	jmpq   *0x30e1a(%rip)        # 3e1e0 <_ZN4llvm10BasicBlockC1ERNS_11LLVMContextERKNS_5TwineEPNS_8FunctionEPS0_@LLVM_11>
    d3c6:	68 39 00 00 00       	pushq  $0x39
    d3cb:	e9 50 fc ff ff       	jmpq   d020 <.plt>

000000000000d3d0 <LLVMInitializeAMDGPUTargetMC@plt>:
    d3d0:	ff 25 12 0e 03 00    	jmpq   *0x30e12(%rip)        # 3e1e8 <LLVMInitializeAMDGPUTargetMC@LLVM_11>
    d3d6:	68 3a 00 00 00       	pushq  $0x3a
    d3db:	e9 40 fc ff ff       	jmpq   d020 <.plt>

000000000000d3e0 <LLVMInitializeX86AsmParser@plt>:
    d3e0:	ff 25 0a 0e 03 00    	jmpq   *0x30e0a(%rip)        # 3e1f0 <LLVMInitializeX86AsmParser@LLVM_11>
    d3e6:	68 3b 00 00 00       	pushq  $0x3b
    d3eb:	e9 30 fc ff ff       	jmpq   d020 <.plt>

000000000000d3f0 <LLVMInitializeSystemZTargetInfo@plt>:
    d3f0:	ff 25 02 0e 03 00    	jmpq   *0x30e02(%rip)        # 3e1f8 <LLVMInitializeSystemZTargetInfo@LLVM_11>
    d3f6:	68 3c 00 00 00       	pushq  $0x3c
    d3fb:	e9 20 fc ff ff       	jmpq   d020 <.plt>

000000000000d400 <_ZNSt7__cxx1112basic_stringIcSt11char_traitsIcESaIcEEaSEOS4_@plt>:
    d400:	ff 25 fa 0d 03 00    	jmpq   *0x30dfa(%rip)        # 3e200 <_ZNSt7__cxx1112basic_stringIcSt11char_traitsIcESaIcEEaSEOS4_@GLIBCXX_3.4.21>
    d406:	68 3d 00 00 00       	pushq  $0x3d
    d40b:	e9 10 fc ff ff       	jmpq   d020 <.plt>

000000000000d410 <LLVMInitializePowerPCTargetInfo@plt>:
    d410:	ff 25 f2 0d 03 00    	jmpq   *0x30df2(%rip)        # 3e208 <LLVMInitializePowerPCTargetInfo@LLVM_11>
    d416:	68 3e 00 00 00       	pushq  $0x3e
    d41b:	e9 00 fc ff ff       	jmpq   d020 <.plt>

000000000000d420 <LLVMInitializeMSP430AsmParser@plt>:
    d420:	ff 25 ea 0d 03 00    	jmpq   *0x30dea(%rip)        # 3e210 <LLVMInitializeMSP430AsmParser@LLVM_11>
    d426:	68 3f 00 00 00       	pushq  $0x3f
    d42b:	e9 f0 fb ff ff       	jmpq   d020 <.plt>

000000000000d430 <LLVMInitializeSystemZAsmPrinter@plt>:
    d430:	ff 25 e2 0d 03 00    	jmpq   *0x30de2(%rip)        # 3e218 <LLVMInitializeSystemZAsmPrinter@LLVM_11>
    d436:	68 40 00 00 00       	pushq  $0x40
    d43b:	e9 e0 fb ff ff       	jmpq   d020 <.plt>

000000000000d440 <_ZN6antlr44tree16ParseTreeVisitorD2Ev@plt>:
    d440:	ff 25 da 0d 03 00    	jmpq   *0x30dda(%rip)        # 3e220 <_ZN6antlr44tree16ParseTreeVisitorD2Ev>
    d446:	68 41 00 00 00       	pushq  $0x41
    d44b:	e9 d0 fb ff ff       	jmpq   d020 <.plt>

000000000000d450 <LLVMInitializeHexagonTargetMC@plt>:
    d450:	ff 25 d2 0d 03 00    	jmpq   *0x30dd2(%rip)        # 3e228 <LLVMInitializeHexagonTargetMC@LLVM_11>
    d456:	68 42 00 00 00       	pushq  $0x42
    d45b:	e9 c0 fb ff ff       	jmpq   d020 <.plt>

000000000000d460 <_ZN4llvm10DataLayoutD1Ev@plt>:
    d460:	ff 25 ca 0d 03 00    	jmpq   *0x30dca(%rip)        # 3e230 <_ZN4llvm10DataLayoutD1Ev@LLVM_11>
    d466:	68 43 00 00 00       	pushq  $0x43
    d46b:	e9 b0 fb ff ff       	jmpq   d020 <.plt>

000000000000d470 <_ZNSt7__cxx1112basic_stringIcSt11char_traitsIcESaIcEED1Ev@plt>:
    d470:	ff 25 c2 0d 03 00    	jmpq   *0x30dc2(%rip)        # 3e238 <_ZNSt7__cxx1112basic_stringIcSt11char_traitsIcESaIcEED1Ev@GLIBCXX_3.4.21>
    d476:	68 44 00 00 00       	pushq  $0x44
    d47b:	e9 a0 fb ff ff       	jmpq   d020 <.plt>

000000000000d480 <_ZN4llvm15IRBuilderFolderD2Ev@plt>:
    d480:	ff 25 ba 0d 03 00    	jmpq   *0x30dba(%rip)        # 3e240 <_ZN4llvm15IRBuilderFolderD2Ev@LLVM_11>
    d486:	68 45 00 00 00       	pushq  $0x45
    d48b:	e9 90 fb ff ff       	jmpq   d020 <.plt>

000000000000d490 <LLVMInitializeLanaiAsmPrinter@plt>:
    d490:	ff 25 b2 0d 03 00    	jmpq   *0x30db2(%rip)        # 3e248 <LLVMInitializeLanaiAsmPrinter@LLVM_11>
    d496:	68 46 00 00 00       	pushq  $0x46
    d49b:	e9 80 fb ff ff       	jmpq   d020 <.plt>

000000000000d4a0 <_ZNK4llvm6Module5printERNS_11raw_ostreamEPNS_24AssemblyAnnotationWriterEbb@plt>:
    d4a0:	ff 25 aa 0d 03 00    	jmpq   *0x30daa(%rip)        # 3e250 <_ZNK4llvm6Module5printERNS_11raw_ostreamEPNS_24AssemblyAnnotationWriterEbb@LLVM_11>
    d4a6:	68 47 00 00 00       	pushq  $0x47
    d4ab:	e9 70 fb ff ff       	jmpq   d020 <.plt>

000000000000d4b0 <LLVMInitializeRISCVTargetMC@plt>:
    d4b0:	ff 25 a2 0d 03 00    	jmpq   *0x30da2(%rip)        # 3e258 <LLVMInitializeRISCVTargetMC@LLVM_11>
    d4b6:	68 48 00 00 00       	pushq  $0x48
    d4bb:	e9 60 fb ff ff       	jmpq   d020 <.plt>

000000000000d4c0 <LLVMInitializeAMDGPUAsmPrinter@plt>:
    d4c0:	ff 25 9a 0d 03 00    	jmpq   *0x30d9a(%rip)        # 3e260 <LLVMInitializeAMDGPUAsmPrinter@LLVM_11>
    d4c6:	68 49 00 00 00       	pushq  $0x49
    d4cb:	e9 50 fb ff ff       	jmpq   d020 <.plt>

000000000000d4d0 <_ZN4llvm16MetadataTracking7untrackEPvRNS_8MetadataE@plt>:
    d4d0:	ff 25 92 0d 03 00    	jmpq   *0x30d92(%rip)        # 3e268 <_ZN4llvm16MetadataTracking7untrackEPvRNS_8MetadataE@LLVM_11>
    d4d6:	68 4a 00 00 00       	pushq  $0x4a
    d4db:	e9 40 fb ff ff       	jmpq   d020 <.plt>

000000000000d4e0 <__cxa_free_exception@plt>:
    d4e0:	ff 25 8a 0d 03 00    	jmpq   *0x30d8a(%rip)        # 3e270 <__cxa_free_exception@CXXABI_1.3>
    d4e6:	68 4b 00 00 00       	pushq  $0x4b
    d4eb:	e9 30 fb ff ff       	jmpq   d020 <.plt>

000000000000d4f0 <LLVMInitializeXCoreTarget@plt>:
    d4f0:	ff 25 82 0d 03 00    	jmpq   *0x30d82(%rip)        # 3e278 <LLVMInitializeXCoreTarget@LLVM_11>
    d4f6:	68 4c 00 00 00       	pushq  $0x4c
    d4fb:	e9 20 fb ff ff       	jmpq   d020 <.plt>

000000000000d500 <_ZN6antlr411TokenSourceD2Ev@plt>:
    d500:	ff 25 7a 0d 03 00    	jmpq   *0x30d7a(%rip)        # 3e280 <_ZN6antlr411TokenSourceD2Ev>
    d506:	68 4d 00 00 00       	pushq  $0x4d
    d50b:	e9 10 fb ff ff       	jmpq   d020 <.plt>

000000000000d510 <LLVMInitializeARMTarget@plt>:
    d510:	ff 25 72 0d 03 00    	jmpq   *0x30d72(%rip)        # 3e288 <LLVMInitializeARMTarget@LLVM_11>
    d516:	68 4e 00 00 00       	pushq  $0x4e
    d51b:	e9 00 fb ff ff       	jmpq   d020 <.plt>

000000000000d520 <LLVMInitializeMSP430AsmPrinter@plt>:
    d520:	ff 25 6a 0d 03 00    	jmpq   *0x30d6a(%rip)        # 3e290 <LLVMInitializeMSP430AsmPrinter@LLVM_11>
    d526:	68 4f 00 00 00       	pushq  $0x4f
    d52b:	e9 f0 fa ff ff       	jmpq   d020 <.plt>

000000000000d530 <_ZN6antlr43atn18ParserATNSimulatorC1EPNS_6ParserERKNS0_3ATNERSt6vectorINS_3dfa3DFAESaIS9_EERSt13unordered_setISt10shared_ptrINS0_17PredictionContextEENS0_23PredictionContextHasherENS0_25PredictionContextComparerESaISG_EE@plt>:
    d530:	ff 25 62 0d 03 00    	jmpq   *0x30d62(%rip)        # 3e298 <_ZN6antlr43atn18ParserATNSimulatorC1EPNS_6ParserERKNS0_3ATNERSt6vectorINS_3dfa3DFAESaIS9_EERSt13unordered_setISt10shared_ptrINS0_17PredictionContextEENS0_23PredictionContextHasherENS0_25PredictionContextComparerESaISG_EE>
    d536:	68 50 00 00 00       	pushq  $0x50
    d53b:	e9 e0 fa ff ff       	jmpq   d020 <.plt>

000000000000d540 <_ZNSolsEPFRSoS_E@plt>:
    d540:	ff 25 5a 0d 03 00    	jmpq   *0x30d5a(%rip)        # 3e2a0 <_ZNSolsEPFRSoS_E@GLIBCXX_3.4>
    d546:	68 51 00 00 00       	pushq  $0x51
    d54b:	e9 d0 fa ff ff       	jmpq   d020 <.plt>

000000000000d550 <LLVMInitializePowerPCTarget@plt>:
    d550:	ff 25 52 0d 03 00    	jmpq   *0x30d52(%rip)        # 3e2a8 <LLVMInitializePowerPCTarget@LLVM_11>
    d556:	68 52 00 00 00       	pushq  $0x52
    d55b:	e9 c0 fa ff ff       	jmpq   d020 <.plt>

000000000000d560 <_ZN4llvm14TargetRegistry12lookupTargetERKNSt7__cxx1112basic_stringIcSt11char_traitsIcESaIcEEERS6_@plt>:
    d560:	ff 25 4a 0d 03 00    	jmpq   *0x30d4a(%rip)        # 3e2b0 <_ZN4llvm14TargetRegistry12lookupTargetERKNSt7__cxx1112basic_stringIcSt11char_traitsIcESaIcEEERS6_@LLVM_11>
    d566:	68 53 00 00 00       	pushq  $0x53
    d56b:	e9 b0 fa ff ff       	jmpq   d020 <.plt>

000000000000d570 <LLVMInitializeBPFTargetMC@plt>:
    d570:	ff 25 42 0d 03 00    	jmpq   *0x30d42(%rip)        # 3e2b8 <LLVMInitializeBPFTargetMC@LLVM_11>
    d576:	68 54 00 00 00       	pushq  $0x54
    d57b:	e9 a0 fa ff ff       	jmpq   d020 <.plt>

000000000000d580 <LLVMInitializeLanaiTargetInfo@plt>:
    d580:	ff 25 3a 0d 03 00    	jmpq   *0x30d3a(%rip)        # 3e2c0 <LLVMInitializeLanaiTargetInfo@LLVM_11>
    d586:	68 55 00 00 00       	pushq  $0x55
    d58b:	e9 90 fa ff ff       	jmpq   d020 <.plt>

000000000000d590 <_ZN6antlr43atn15ATNDeserializerC1Ev@plt>:
    d590:	ff 25 32 0d 03 00    	jmpq   *0x30d32(%rip)        # 3e2c8 <_ZN6antlr43atn15ATNDeserializerC1Ev>
    d596:	68 56 00 00 00       	pushq  $0x56
    d59b:	e9 80 fa ff ff       	jmpq   d020 <.plt>

000000000000d5a0 <LLVMInitializeAMDGPUAsmParser@plt>:
    d5a0:	ff 25 2a 0d 03 00    	jmpq   *0x30d2a(%rip)        # 3e2d0 <LLVMInitializeAMDGPUAsmParser@LLVM_11>
    d5a6:	68 57 00 00 00       	pushq  $0x57
    d5ab:	e9 70 fa ff ff       	jmpq   d020 <.plt>

000000000000d5b0 <_ZN6antlr45LexerC2EPNS_10CharStreamE@plt>:
    d5b0:	ff 25 22 0d 03 00    	jmpq   *0x30d22(%rip)        # 3e2d8 <_ZN6antlr45LexerC2EPNS_10CharStreamE>
    d5b6:	68 58 00 00 00       	pushq  $0x58
    d5bb:	e9 60 fa ff ff       	jmpq   d020 <.plt>

000000000000d5c0 <_ZNSt14basic_ifstreamIcSt11char_traitsIcEED1Ev@plt>:
    d5c0:	ff 25 1a 0d 03 00    	jmpq   *0x30d1a(%rip)        # 3e2e0 <_ZNSt14basic_ifstreamIcSt11char_traitsIcEED1Ev@GLIBCXX_3.4>
    d5c6:	68 59 00 00 00       	pushq  $0x59
    d5cb:	e9 50 fa ff ff       	jmpq   d020 <.plt>

000000000000d5d0 <__cxa_begin_catch@plt>:
    d5d0:	ff 25 12 0d 03 00    	jmpq   *0x30d12(%rip)        # 3e2e8 <__cxa_begin_catch@CXXABI_1.3>
    d5d6:	68 5a 00 00 00       	pushq  $0x5a
    d5db:	e9 40 fa ff ff       	jmpq   d020 <.plt>

000000000000d5e0 <_ZN4llvm4Type10getInt32TyERNS_11LLVMContextE@plt>:
    d5e0:	ff 25 0a 0d 03 00    	jmpq   *0x30d0a(%rip)        # 3e2f0 <_ZN4llvm4Type10getInt32TyERNS_11LLVMContextE@LLVM_11>
    d5e6:	68 5b 00 00 00       	pushq  $0x5b
    d5eb:	e9 30 fa ff ff       	jmpq   d020 <.plt>

000000000000d5f0 <LLVMInitializePowerPCTargetMC@plt>:
    d5f0:	ff 25 02 0d 03 00    	jmpq   *0x30d02(%rip)        # 3e2f8 <LLVMInitializePowerPCTargetMC@LLVM_11>
    d5f6:	68 5c 00 00 00       	pushq  $0x5c
    d5fb:	e9 20 fa ff ff       	jmpq   d020 <.plt>

000000000000d600 <_ZN6antlr420RecognitionExceptionD2Ev@plt>:
    d600:	ff 25 fa 0c 03 00    	jmpq   *0x30cfa(%rip)        # 3e300 <_ZN6antlr420RecognitionExceptionD2Ev>
    d606:	68 5d 00 00 00       	pushq  $0x5d
    d60b:	e9 10 fa ff ff       	jmpq   d020 <.plt>

000000000000d610 <_ZN4llvm10ReturnInstC1ERNS_11LLVMContextEPNS_5ValueEPNS_11InstructionE@plt>:
    d610:	ff 25 f2 0c 03 00    	jmpq   *0x30cf2(%rip)        # 3e308 <_ZN4llvm10ReturnInstC1ERNS_11LLVMContextEPNS_5ValueEPNS_11InstructionE@LLVM_11>
    d616:	68 5e 00 00 00       	pushq  $0x5e
    d61b:	e9 00 fa ff ff       	jmpq   d020 <.plt>

000000000000d620 <_ZdlPvm@plt>:
    d620:	ff 25 ea 0c 03 00    	jmpq   *0x30cea(%rip)        # 3e310 <_ZdlPvm@CXXABI_1.3.9>
    d626:	68 5f 00 00 00       	pushq  $0x5f
    d62b:	e9 f0 f9 ff ff       	jmpq   d020 <.plt>

000000000000d630 <_ZN6antlr43atn17LexerATNSimulatorC1EPNS_5LexerERKNS0_3ATNERSt6vectorINS_3dfa3DFAESaIS9_EERSt13unordered_setISt10shared_ptrINS0_17PredictionContextEENS0_23PredictionContextHasherENS0_25PredictionContextComparerESaISG_EE@plt>:
    d630:	ff 25 e2 0c 03 00    	jmpq   *0x30ce2(%rip)        # 3e318 <_ZN6antlr43atn17LexerATNSimulatorC1EPNS_5LexerERKNS0_3ATNERSt6vectorINS_3dfa3DFAESaIS9_EERSt13unordered_setISt10shared_ptrINS0_17PredictionContextEENS0_23PredictionContextHasherENS0_25PredictionContextComparerESaISG_EE>
    d636:	68 60 00 00 00       	pushq  $0x60
    d63b:	e9 e0 f9 ff ff       	jmpq   d020 <.plt>

000000000000d640 <LLVMInitializeARMTargetMC@plt>:
    d640:	ff 25 da 0c 03 00    	jmpq   *0x30cda(%rip)        # 3e320 <LLVMInitializeARMTargetMC@LLVM_11>
    d646:	68 61 00 00 00       	pushq  $0x61
    d64b:	e9 d0 f9 ff ff       	jmpq   d020 <.plt>

000000000000d650 <memmove@plt>:
    d650:	ff 25 d2 0c 03 00    	jmpq   *0x30cd2(%rip)        # 3e328 <memmove@GLIBC_2.2.5>
    d656:	68 62 00 00 00       	pushq  $0x62
    d65b:	e9 c0 f9 ff ff       	jmpq   d020 <.plt>

000000000000d660 <LLVMInitializeBPFTargetInfo@plt>:
    d660:	ff 25 ca 0c 03 00    	jmpq   *0x30cca(%rip)        # 3e330 <LLVMInitializeBPFTargetInfo@LLVM_11>
    d666:	68 63 00 00 00       	pushq  $0x63
    d66b:	e9 b0 f9 ff ff       	jmpq   d020 <.plt>

000000000000d670 <_ZN4llvm8Function6CreateEPNS_12FunctionTypeENS_11GlobalValue12LinkageTypesERKNS_5TwineERNS_6ModuleE@plt>:
    d670:	ff 25 c2 0c 03 00    	jmpq   *0x30cc2(%rip)        # 3e338 <_ZN4llvm8Function6CreateEPNS_12FunctionTypeENS_11GlobalValue12LinkageTypesERKNS_5TwineERNS_6ModuleE@LLVM_11>
    d676:	68 64 00 00 00       	pushq  $0x64
    d67b:	e9 a0 f9 ff ff       	jmpq   d020 <.plt>

000000000000d680 <_ZN6antlr417CommonTokenStreamC1EPNS_11TokenSourceE@plt>:
    d680:	ff 25 ba 0c 03 00    	jmpq   *0x30cba(%rip)        # 3e340 <_ZN6antlr417CommonTokenStreamC1EPNS_11TokenSourceE>
    d686:	68 65 00 00 00       	pushq  $0x65
    d68b:	e9 90 f9 ff ff       	jmpq   d020 <.plt>

000000000000d690 <LLVMInitializeAVRTargetMC@plt>:
    d690:	ff 25 b2 0c 03 00    	jmpq   *0x30cb2(%rip)        # 3e348 <LLVMInitializeAVRTargetMC@LLVM_11>
    d696:	68 66 00 00 00       	pushq  $0x66
    d69b:	e9 80 f9 ff ff       	jmpq   d020 <.plt>

000000000000d6a0 <_ZNKSt7__cxx1112basic_stringIcSt11char_traitsIcESaIcEE5emptyEv@plt>:
    d6a0:	ff 25 aa 0c 03 00    	jmpq   *0x30caa(%rip)        # 3e350 <_ZNKSt7__cxx1112basic_stringIcSt11char_traitsIcESaIcEE5emptyEv@GLIBCXX_3.4.21>
    d6a6:	68 67 00 00 00       	pushq  $0x67
    d6ab:	e9 70 f9 ff ff       	jmpq   d020 <.plt>

000000000000d6b0 <LLVMInitializeMSP430Target@plt>:
    d6b0:	ff 25 a2 0c 03 00    	jmpq   *0x30ca2(%rip)        # 3e358 <LLVMInitializeMSP430Target@LLVM_11>
    d6b6:	68 68 00 00 00       	pushq  $0x68
    d6bb:	e9 60 f9 ff ff       	jmpq   d020 <.plt>

000000000000d6c0 <_ZN4llvm6ModuleC1ENS_9StringRefERNS_11LLVMContextE@plt>:
    d6c0:	ff 25 9a 0c 03 00    	jmpq   *0x30c9a(%rip)        # 3e360 <_ZN4llvm6ModuleC1ENS_9StringRefERNS_11LLVMContextE@LLVM_11>
    d6c6:	68 69 00 00 00       	pushq  $0x69
    d6cb:	e9 50 f9 ff ff       	jmpq   d020 <.plt>

000000000000d6d0 <_ZN6antlr46ParserD2Ev@plt>:
    d6d0:	ff 25 92 0c 03 00    	jmpq   *0x30c92(%rip)        # 3e368 <_ZN6antlr46ParserD2Ev>
    d6d6:	68 6a 00 00 00       	pushq  $0x6a
    d6db:	e9 40 f9 ff ff       	jmpq   d020 <.plt>

000000000000d6e0 <LLVMInitializeLanaiAsmParser@plt>:
    d6e0:	ff 25 8a 0c 03 00    	jmpq   *0x30c8a(%rip)        # 3e370 <LLVMInitializeLanaiAsmParser@LLVM_11>
    d6e6:	68 6b 00 00 00       	pushq  $0x6b
    d6eb:	e9 30 f9 ff ff       	jmpq   d020 <.plt>

000000000000d6f0 <_ZN4llvm11LLVMContextC1Ev@plt>:
    d6f0:	ff 25 82 0c 03 00    	jmpq   *0x30c82(%rip)        # 3e378 <_ZN4llvm11LLVMContextC1Ev@LLVM_11>
    d6f6:	68 6c 00 00 00       	pushq  $0x6c
    d6fb:	e9 20 f9 ff ff       	jmpq   d020 <.plt>

000000000000d700 <LLVMInitializeSparcTarget@plt>:
    d700:	ff 25 7a 0c 03 00    	jmpq   *0x30c7a(%rip)        # 3e380 <LLVMInitializeSparcTarget@LLVM_11>
    d706:	68 6d 00 00 00       	pushq  $0x6d
    d70b:	e9 10 f9 ff ff       	jmpq   d020 <.plt>

000000000000d710 <strlen@plt>:
    d710:	ff 25 72 0c 03 00    	jmpq   *0x30c72(%rip)        # 3e388 <strlen@GLIBC_2.2.5>
    d716:	68 6e 00 00 00       	pushq  $0x6e
    d71b:	e9 00 f9 ff ff       	jmpq   d020 <.plt>

000000000000d720 <_ZN8antlrcpp3AnyD1Ev@plt>:
    d720:	ff 25 6a 0c 03 00    	jmpq   *0x30c6a(%rip)        # 3e390 <_ZN8antlrcpp3AnyD1Ev>
    d726:	68 6f 00 00 00       	pushq  $0x6f
    d72b:	e9 f0 f8 ff ff       	jmpq   d020 <.plt>

000000000000d730 <LLVMInitializeBPFAsmParser@plt>:
    d730:	ff 25 62 0c 03 00    	jmpq   *0x30c62(%rip)        # 3e398 <LLVMInitializeBPFAsmParser@LLVM_11>
    d736:	68 70 00 00 00       	pushq  $0x70
    d73b:	e9 e0 f8 ff ff       	jmpq   d020 <.plt>

000000000000d740 <_ZNK6antlr43dfa10Vocabulary15getSymbolicNameB5cxx11Em@plt>:
    d740:	ff 25 5a 0c 03 00    	jmpq   *0x30c5a(%rip)        # 3e3a0 <_ZNK6antlr43dfa10Vocabulary15getSymbolicNameB5cxx11Em>
    d746:	68 71 00 00 00       	pushq  $0x71
    d74b:	e9 d0 f8 ff ff       	jmpq   d020 <.plt>

000000000000d750 <_ZN6antlr410Recognizer8setStateEm@plt>:
    d750:	ff 25 52 0c 03 00    	jmpq   *0x30c52(%rip)        # 3e3a8 <_ZN6antlr410Recognizer8setStateEm>
    d756:	68 72 00 00 00       	pushq  $0x72
    d75b:	e9 c0 f8 ff ff       	jmpq   d020 <.plt>

000000000000d760 <_ZN4llvm3sys22getDefaultTargetTripleB5cxx11Ev@plt>:
    d760:	ff 25 4a 0c 03 00    	jmpq   *0x30c4a(%rip)        # 3e3b0 <_ZN4llvm3sys22getDefaultTargetTripleB5cxx11Ev@LLVM_11>
    d766:	68 73 00 00 00       	pushq  $0x73
    d76b:	e9 b0 f8 ff ff       	jmpq   d020 <.plt>

000000000000d770 <__cxa_throw@plt>:
    d770:	ff 25 42 0c 03 00    	jmpq   *0x30c42(%rip)        # 3e3b8 <__cxa_throw@CXXABI_1.3>
    d776:	68 74 00 00 00       	pushq  $0x74
    d77b:	e9 a0 f8 ff ff       	jmpq   d020 <.plt>

000000000000d780 <_Unwind_Resume@plt>:
    d780:	ff 25 3a 0c 03 00    	jmpq   *0x30c3a(%rip)        # 3e3c0 <_Unwind_Resume@GCC_3.0>
    d786:	68 75 00 00 00       	pushq  $0x75
    d78b:	e9 90 f8 ff ff       	jmpq   d020 <.plt>

000000000000d790 <__cxa_call_unexpected@plt>:
    d790:	ff 25 32 0c 03 00    	jmpq   *0x30c32(%rip)        # 3e3c8 <__cxa_call_unexpected@CXXABI_1.3>
    d796:	68 76 00 00 00       	pushq  $0x76
    d79b:	e9 80 f8 ff ff       	jmpq   d020 <.plt>

000000000000d7a0 <LLVMInitializeAVRAsmPrinter@plt>:
    d7a0:	ff 25 2a 0c 03 00    	jmpq   *0x30c2a(%rip)        # 3e3d0 <LLVMInitializeAVRAsmPrinter@LLVM_11>
    d7a6:	68 77 00 00 00       	pushq  $0x77
    d7ab:	e9 70 f8 ff ff       	jmpq   d020 <.plt>

000000000000d7b0 <_ZN4llvm4errsEv@plt>:
    d7b0:	ff 25 22 0c 03 00    	jmpq   *0x30c22(%rip)        # 3e3d8 <_ZN4llvm4errsEv@LLVM_11>
    d7b6:	68 78 00 00 00       	pushq  $0x78
    d7bb:	e9 60 f8 ff ff       	jmpq   d020 <.plt>

000000000000d7c0 <_ZN6antlr417ParserRuleContextC2EPS0_m@plt>:
    d7c0:	ff 25 1a 0c 03 00    	jmpq   *0x30c1a(%rip)        # 3e3e0 <_ZN6antlr417ParserRuleContextC2EPS0_m>
    d7c6:	68 79 00 00 00       	pushq  $0x79
    d7cb:	e9 50 f8 ff ff       	jmpq   d020 <.plt>

000000000000d7d0 <LLVMInitializeNVPTXTargetMC@plt>:
    d7d0:	ff 25 12 0c 03 00    	jmpq   *0x30c12(%rip)        # 3e3e8 <LLVMInitializeNVPTXTargetMC@LLVM_11>
    d7d6:	68 7a 00 00 00       	pushq  $0x7a
    d7db:	e9 40 f8 ff ff       	jmpq   d020 <.plt>

000000000000d7e0 <LLVMInitializeSparcTargetMC@plt>:
    d7e0:	ff 25 0a 0c 03 00    	jmpq   *0x30c0a(%rip)        # 3e3f0 <LLVMInitializeSparcTargetMC@LLVM_11>
    d7e6:	68 7b 00 00 00       	pushq  $0x7b
    d7eb:	e9 30 f8 ff ff       	jmpq   d020 <.plt>

000000000000d7f0 <LLVMInitializeXCoreAsmPrinter@plt>:
    d7f0:	ff 25 02 0c 03 00    	jmpq   *0x30c02(%rip)        # 3e3f8 <LLVMInitializeXCoreAsmPrinter@LLVM_11>
    d7f6:	68 7c 00 00 00       	pushq  $0x7c
    d7fb:	e9 20 f8 ff ff       	jmpq   d020 <.plt>

000000000000d800 <LLVMInitializeSystemZTarget@plt>:
    d800:	ff 25 fa 0b 03 00    	jmpq   *0x30bfa(%rip)        # 3e400 <LLVMInitializeSystemZTarget@LLVM_11>
    d806:	68 7d 00 00 00       	pushq  $0x7d
    d80b:	e9 10 f8 ff ff       	jmpq   d020 <.plt>

000000000000d810 <LLVMInitializeWebAssemblyAsmParser@plt>:
    d810:	ff 25 f2 0b 03 00    	jmpq   *0x30bf2(%rip)        # 3e408 <LLVMInitializeWebAssemblyAsmParser@LLVM_11>
    d816:	68 7e 00 00 00       	pushq  $0x7e
    d81b:	e9 00 f8 ff ff       	jmpq   d020 <.plt>

000000000000d820 <_ZNSt7__cxx1112basic_stringIcSt11char_traitsIcESaIcEEC1EPKcRKS3_@plt>:
    d820:	ff 25 ea 0b 03 00    	jmpq   *0x30bea(%rip)        # 3e410 <_ZNSt7__cxx1112basic_stringIcSt11char_traitsIcESaIcEEC1EPKcRKS3_@GLIBCXX_3.4.21>
    d826:	68 7f 00 00 00       	pushq  $0x7f
    d82b:	e9 f0 f7 ff ff       	jmpq   d020 <.plt>

000000000000d830 <_ZNSt3_V215system_categoryEv@plt>:
    d830:	ff 25 e2 0b 03 00    	jmpq   *0x30be2(%rip)        # 3e418 <_ZNSt3_V215system_categoryEv@GLIBCXX_3.4.21>
    d836:	68 80 00 00 00       	pushq  $0x80
    d83b:	e9 e0 f7 ff ff       	jmpq   d020 <.plt>

000000000000d840 <_ZNSt15__exception_ptr13exception_ptr4swapERS0_@plt>:
    d840:	ff 25 da 0b 03 00    	jmpq   *0x30bda(%rip)        # 3e420 <_ZNSt15__exception_ptr13exception_ptr4swapERS0_@CXXABI_1.3.3>
    d846:	68 81 00 00 00       	pushq  $0x81
    d84b:	e9 d0 f7 ff ff       	jmpq   d020 <.plt>

000000000000d850 <LLVMInitializeX86AsmPrinter@plt>:
    d850:	ff 25 d2 0b 03 00    	jmpq   *0x30bd2(%rip)        # 3e428 <LLVMInitializeX86AsmPrinter@LLVM_11>
    d856:	68 82 00 00 00       	pushq  $0x82
    d85b:	e9 c0 f7 ff ff       	jmpq   d020 <.plt>

000000000000d860 <_ZNSt7__cxx1112basic_stringIcSt11char_traitsIcESaIcEEC1EOS4_@plt>:
    d860:	ff 25 ca 0b 03 00    	jmpq   *0x30bca(%rip)        # 3e430 <_ZNSt7__cxx1112basic_stringIcSt11char_traitsIcESaIcEEC1EOS4_@GLIBCXX_3.4.21>
    d866:	68 83 00 00 00       	pushq  $0x83
    d86b:	e9 b0 f7 ff ff       	jmpq   d020 <.plt>

000000000000d870 <LLVMInitializeNVPTXTarget@plt>:
    d870:	ff 25 c2 0b 03 00    	jmpq   *0x30bc2(%rip)        # 3e438 <LLVMInitializeNVPTXTarget@LLVM_11>
    d876:	68 84 00 00 00       	pushq  $0x84
    d87b:	e9 a0 f7 ff ff       	jmpq   d020 <.plt>

000000000000d880 <LLVMInitializeMipsTargetInfo@plt>:
    d880:	ff 25 ba 0b 03 00    	jmpq   *0x30bba(%rip)        # 3e440 <LLVMInitializeMipsTargetInfo@LLVM_11>
    d886:	68 85 00 00 00       	pushq  $0x85
    d88b:	e9 90 f7 ff ff       	jmpq   d020 <.plt>

000000000000d890 <_ZN4llvm6TripleC1ERKNS_5TwineE@plt>:
    d890:	ff 25 b2 0b 03 00    	jmpq   *0x30bb2(%rip)        # 3e448 <_ZN4llvm6TripleC1ERKNS_5TwineE@LLVM_11>
    d896:	68 86 00 00 00       	pushq  $0x86
    d89b:	e9 80 f7 ff ff       	jmpq   d020 <.plt>

000000000000d8a0 <_ZN4llvm11ConstantInt3getEPNS_11IntegerTypeENS_9StringRefEh@plt>:
    d8a0:	ff 25 aa 0b 03 00    	jmpq   *0x30baa(%rip)        # 3e450 <_ZN4llvm11ConstantInt3getEPNS_11IntegerTypeENS_9StringRefEh@LLVM_11>
    d8a6:	68 87 00 00 00       	pushq  $0x87
    d8ab:	e9 70 f7 ff ff       	jmpq   d020 <.plt>

000000000000d8b0 <_ZN4llvm16MetadataTracking5trackEPvRNS_8MetadataENS_12PointerUnionIJPNS_15MetadataAsValueEPS2_EEE@plt>:
    d8b0:	ff 25 a2 0b 03 00    	jmpq   *0x30ba2(%rip)        # 3e458 <_ZN4llvm16MetadataTracking5trackEPvRNS_8MetadataENS_12PointerUnionIJPNS_15MetadataAsValueEPS2_EEE@LLVM_11>
    d8b6:	68 88 00 00 00       	pushq  $0x88
    d8bb:	e9 60 f7 ff ff       	jmpq   d020 <.plt>

000000000000d8c0 <LLVMInitializeAArch64TargetMC@plt>:
    d8c0:	ff 25 9a 0b 03 00    	jmpq   *0x30b9a(%rip)        # 3e460 <LLVMInitializeAArch64TargetMC@LLVM_11>
    d8c6:	68 89 00 00 00       	pushq  $0x89
    d8cb:	e9 50 f7 ff ff       	jmpq   d020 <.plt>

000000000000d8d0 <_ZSt25__throw_bad_function_callv@plt>:
    d8d0:	ff 25 92 0b 03 00    	jmpq   *0x30b92(%rip)        # 3e468 <_ZSt25__throw_bad_function_callv@GLIBCXX_3.4.14>
    d8d6:	68 8a 00 00 00       	pushq  $0x8a
    d8db:	e9 40 f7 ff ff       	jmpq   d020 <.plt>

000000000000d8e0 <LLVMInitializeWebAssemblyAsmPrinter@plt>:
    d8e0:	ff 25 8a 0b 03 00    	jmpq   *0x30b8a(%rip)        # 3e470 <LLVMInitializeWebAssemblyAsmPrinter@LLVM_11>
    d8e6:	68 8b 00 00 00       	pushq  $0x8b
    d8eb:	e9 30 f7 ff ff       	jmpq   d020 <.plt>

000000000000d8f0 <_ZN6antlr410CharStreamD2Ev@plt>:
    d8f0:	ff 25 82 0b 03 00    	jmpq   *0x30b82(%rip)        # 3e478 <_ZN6antlr410CharStreamD2Ev>
    d8f6:	68 8c 00 00 00       	pushq  $0x8c
    d8fb:	e9 20 f7 ff ff       	jmpq   d020 <.plt>

000000000000d900 <LLVMInitializeRISCVAsmParser@plt>:
    d900:	ff 25 7a 0b 03 00    	jmpq   *0x30b7a(%rip)        # 3e480 <LLVMInitializeRISCVAsmParser@LLVM_11>
    d906:	68 8d 00 00 00       	pushq  $0x8d
    d90b:	e9 10 f7 ff ff       	jmpq   d020 <.plt>

000000000000d910 <LLVMInitializeAArch64TargetInfo@plt>:
    d910:	ff 25 72 0b 03 00    	jmpq   *0x30b72(%rip)        # 3e488 <LLVMInitializeAArch64TargetInfo@LLVM_11>
    d916:	68 8e 00 00 00       	pushq  $0x8e
    d91b:	e9 00 f7 ff ff       	jmpq   d020 <.plt>

000000000000d920 <_ZSt17__throw_bad_allocv@plt>:
    d920:	ff 25 6a 0b 03 00    	jmpq   *0x30b6a(%rip)        # 3e490 <_ZSt17__throw_bad_allocv@GLIBCXX_3.4>
    d926:	68 8f 00 00 00       	pushq  $0x8f
    d92b:	e9 f0 f6 ff ff       	jmpq   d020 <.plt>

000000000000d930 <memcpy@plt>:
    d930:	ff 25 62 0b 03 00    	jmpq   *0x30b62(%rip)        # 3e498 <memcpy@GLIBC_2.14>
    d936:	68 90 00 00 00       	pushq  $0x90
    d93b:	e9 e0 f6 ff ff       	jmpq   d020 <.plt>

000000000000d940 <LLVMInitializeMipsAsmPrinter@plt>:
    d940:	ff 25 5a 0b 03 00    	jmpq   *0x30b5a(%rip)        # 3e4a0 <LLVMInitializeMipsAsmPrinter@LLVM_11>
    d946:	68 91 00 00 00       	pushq  $0x91
    d94b:	e9 d0 f6 ff ff       	jmpq   d020 <.plt>

000000000000d950 <_Znwm@plt>:
    d950:	ff 25 52 0b 03 00    	jmpq   *0x30b52(%rip)        # 3e4a8 <_Znwm@GLIBCXX_3.4>
    d956:	68 92 00 00 00       	pushq  $0x92
    d95b:	e9 c0 f6 ff ff       	jmpq   d020 <.plt>

000000000000d960 <free@plt>:
    d960:	ff 25 4a 0b 03 00    	jmpq   *0x30b4a(%rip)        # 3e4b0 <free@GLIBC_2.2.5>
    d966:	68 93 00 00 00       	pushq  $0x93
    d96b:	e9 b0 f6 ff ff       	jmpq   d020 <.plt>

000000000000d970 <LLVMInitializeSparcAsmPrinter@plt>:
    d970:	ff 25 42 0b 03 00    	jmpq   *0x30b42(%rip)        # 3e4b8 <LLVMInitializeSparcAsmPrinter@LLVM_11>
    d976:	68 94 00 00 00       	pushq  $0x94
    d97b:	e9 a0 f6 ff ff       	jmpq   d020 <.plt>

000000000000d980 <_ZN4llvm15SmallVectorBaseImE8grow_podEPvmm@plt>:
    d980:	ff 25 3a 0b 03 00    	jmpq   *0x30b3a(%rip)        # 3e4c0 <_ZN4llvm15SmallVectorBaseImE8grow_podEPvmm@LLVM_11>
    d986:	68 95 00 00 00       	pushq  $0x95
    d98b:	e9 90 f6 ff ff       	jmpq   d020 <.plt>

000000000000d990 <LLVMInitializeARMAsmParser@plt>:
    d990:	ff 25 32 0b 03 00    	jmpq   *0x30b32(%rip)        # 3e4c8 <LLVMInitializeARMAsmParser@LLVM_11>
    d996:	68 96 00 00 00       	pushq  $0x96
    d99b:	e9 80 f6 ff ff       	jmpq   d020 <.plt>

000000000000d9a0 <LLVMInitializeARMTargetInfo@plt>:
    d9a0:	ff 25 2a 0b 03 00    	jmpq   *0x30b2a(%rip)        # 3e4d0 <LLVMInitializeARMTargetInfo@LLVM_11>
    d9a6:	68 97 00 00 00       	pushq  $0x97
    d9ab:	e9 70 f6 ff ff       	jmpq   d020 <.plt>

000000000000d9b0 <_ZNK4llvm10BasicBlock10getContextEv@plt>:
    d9b0:	ff 25 22 0b 03 00    	jmpq   *0x30b22(%rip)        # 3e4d8 <_ZNK4llvm10BasicBlock10getContextEv@LLVM_11>
    d9b6:	68 98 00 00 00       	pushq  $0x98
    d9bb:	e9 60 f6 ff ff       	jmpq   d020 <.plt>

000000000000d9c0 <LLVMInitializeSystemZAsmParser@plt>:
    d9c0:	ff 25 1a 0b 03 00    	jmpq   *0x30b1a(%rip)        # 3e4e0 <LLVMInitializeSystemZAsmParser@LLVM_11>
    d9c6:	68 99 00 00 00       	pushq  $0x99
    d9cb:	e9 50 f6 ff ff       	jmpq   d020 <.plt>

000000000000d9d0 <_ZN6antlr410RecognizerD2Ev@plt>:
    d9d0:	ff 25 12 0b 03 00    	jmpq   *0x30b12(%rip)        # 3e4e8 <_ZN6antlr410RecognizerD2Ev>
    d9d6:	68 9a 00 00 00       	pushq  $0x9a
    d9db:	e9 40 f6 ff ff       	jmpq   d020 <.plt>

000000000000d9e0 <_ZNSt7__cxx1112basic_stringIcSt11char_traitsIcESaIcEEC1Ev@plt>:
    d9e0:	ff 25 0a 0b 03 00    	jmpq   *0x30b0a(%rip)        # 3e4f0 <_ZNSt7__cxx1112basic_stringIcSt11char_traitsIcESaIcEEC1Ev@GLIBCXX_3.4.21>
    d9e6:	68 9b 00 00 00       	pushq  $0x9b
    d9eb:	e9 30 f6 ff ff       	jmpq   d020 <.plt>

000000000000d9f0 <_ZN6antlr411TokenStreamD2Ev@plt>:
    d9f0:	ff 25 02 0b 03 00    	jmpq   *0x30b02(%rip)        # 3e4f8 <_ZN6antlr411TokenStreamD2Ev>
    d9f6:	68 9c 00 00 00       	pushq  $0x9c
    d9fb:	e9 20 f6 ff ff       	jmpq   d020 <.plt>

000000000000da00 <LLVMInitializeRISCVAsmPrinter@plt>:
    da00:	ff 25 fa 0a 03 00    	jmpq   *0x30afa(%rip)        # 3e500 <LLVMInitializeRISCVAsmPrinter@LLVM_11>
    da06:	68 9d 00 00 00       	pushq  $0x9d
    da0b:	e9 10 f6 ff ff       	jmpq   d020 <.plt>

000000000000da10 <LLVMInitializeMSP430TargetInfo@plt>:
    da10:	ff 25 f2 0a 03 00    	jmpq   *0x30af2(%rip)        # 3e508 <LLVMInitializeMSP430TargetInfo@LLVM_11>
    da16:	68 9e 00 00 00       	pushq  $0x9e
    da1b:	e9 00 f6 ff ff       	jmpq   d020 <.plt>

000000000000da20 <LLVMInitializeHexagonTarget@plt>:
    da20:	ff 25 ea 0a 03 00    	jmpq   *0x30aea(%rip)        # 3e510 <LLVMInitializeHexagonTarget@LLVM_11>
    da26:	68 9f 00 00 00       	pushq  $0x9f
    da2b:	e9 f0 f5 ff ff       	jmpq   d020 <.plt>

000000000000da30 <LLVMInitializeSparcTargetInfo@plt>:
    da30:	ff 25 e2 0a 03 00    	jmpq   *0x30ae2(%rip)        # 3e518 <LLVMInitializeSparcTargetInfo@LLVM_11>
    da36:	68 a0 00 00 00       	pushq  $0xa0
    da3b:	e9 e0 f5 ff ff       	jmpq   d020 <.plt>

000000000000da40 <LLVMInitializeAArch64AsmParser@plt>:
    da40:	ff 25 da 0a 03 00    	jmpq   *0x30ada(%rip)        # 3e520 <LLVMInitializeAArch64AsmParser@LLVM_11>
    da46:	68 a1 00 00 00       	pushq  $0xa1
    da4b:	e9 d0 f5 ff ff       	jmpq   d020 <.plt>

000000000000da50 <_ZN4llvm11raw_ostream5writeEPKcm@plt>:
    da50:	ff 25 d2 0a 03 00    	jmpq   *0x30ad2(%rip)        # 3e528 <_ZN4llvm11raw_ostream5writeEPKcm@LLVM_11>
    da56:	68 a2 00 00 00       	pushq  $0xa2
    da5b:	e9 c0 f5 ff ff       	jmpq   d020 <.plt>

000000000000da60 <_ZN6antlr416ANTLRInputStreamC1ERSi@plt>:
    da60:	ff 25 ca 0a 03 00    	jmpq   *0x30aca(%rip)        # 3e530 <_ZN6antlr416ANTLRInputStreamC1ERSi>
    da66:	68 a3 00 00 00       	pushq  $0xa3
    da6b:	e9 b0 f5 ff ff       	jmpq   d020 <.plt>

000000000000da70 <_ZN6antlr43atn3ATNC1Ev@plt>:
    da70:	ff 25 c2 0a 03 00    	jmpq   *0x30ac2(%rip)        # 3e538 <_ZN6antlr43atn3ATNC1Ev>
    da76:	68 a4 00 00 00       	pushq  $0xa4
    da7b:	e9 a0 f5 ff ff       	jmpq   d020 <.plt>

000000000000da80 <_ZN4llvm11LLVMContextD1Ev@plt>:
    da80:	ff 25 ba 0a 03 00    	jmpq   *0x30aba(%rip)        # 3e540 <_ZN4llvm11LLVMContextD1Ev@LLVM_11>
    da86:	68 a5 00 00 00       	pushq  $0xa5
    da8b:	e9 90 f5 ff ff       	jmpq   d020 <.plt>

000000000000da90 <_ZStlsISt11char_traitsIcEERSt13basic_ostreamIcT_ES5_PKc@plt>:
    da90:	ff 25 b2 0a 03 00    	jmpq   *0x30ab2(%rip)        # 3e548 <_ZStlsISt11char_traitsIcEERSt13basic_ostreamIcT_ES5_PKc@GLIBCXX_3.4>
    da96:	68 a6 00 00 00       	pushq  $0xa6
    da9b:	e9 80 f5 ff ff       	jmpq   d020 <.plt>

000000000000daa0 <LLVMInitializeAVRTarget@plt>:
    daa0:	ff 25 aa 0a 03 00    	jmpq   *0x30aaa(%rip)        # 3e550 <LLVMInitializeAVRTarget@LLVM_11>
    daa6:	68 a7 00 00 00       	pushq  $0xa7
    daab:	e9 70 f5 ff ff       	jmpq   d020 <.plt>

000000000000dab0 <_ZN8antlrcpp7finallyESt8functionIFvvEE@plt>:
    dab0:	ff 25 a2 0a 03 00    	jmpq   *0x30aa2(%rip)        # 3e558 <_ZN8antlrcpp7finallyESt8functionIFvvEE>
    dab6:	68 a8 00 00 00       	pushq  $0xa8
    dabb:	e9 60 f5 ff ff       	jmpq   d020 <.plt>

000000000000dac0 <LLVMInitializeAVRAsmParser@plt>:
    dac0:	ff 25 9a 0a 03 00    	jmpq   *0x30a9a(%rip)        # 3e560 <LLVMInitializeAVRAsmParser@LLVM_11>
    dac6:	68 a9 00 00 00       	pushq  $0xa9
    dacb:	e9 50 f5 ff ff       	jmpq   d020 <.plt>

000000000000dad0 <_ZN4llvm14verifyFunctionERKNS_8FunctionEPNS_11raw_ostreamE@plt>:
    dad0:	ff 25 92 0a 03 00    	jmpq   *0x30a92(%rip)        # 3e568 <_ZN4llvm14verifyFunctionERKNS_8FunctionEPNS_11raw_ostreamE@LLVM_11>
    dad6:	68 aa 00 00 00       	pushq  $0xaa
    dadb:	e9 40 f5 ff ff       	jmpq   d020 <.plt>

000000000000dae0 <LLVMInitializeMipsAsmParser@plt>:
    dae0:	ff 25 8a 0a 03 00    	jmpq   *0x30a8a(%rip)        # 3e570 <LLVMInitializeMipsAsmParser@LLVM_11>
    dae6:	68 ab 00 00 00       	pushq  $0xab
    daeb:	e9 30 f5 ff ff       	jmpq   d020 <.plt>

000000000000daf0 <_ZNSt14basic_ifstreamIcSt11char_traitsIcEE4openEPKcSt13_Ios_Openmode@plt>:
    daf0:	ff 25 82 0a 03 00    	jmpq   *0x30a82(%rip)        # 3e578 <_ZNSt14basic_ifstreamIcSt11char_traitsIcEE4openEPKcSt13_Ios_Openmode@GLIBCXX_3.4>
    daf6:	68 ac 00 00 00       	pushq  $0xac
    dafb:	e9 20 f5 ff ff       	jmpq   d020 <.plt>

000000000000db00 <LLVMInitializeWebAssemblyTargetInfo@plt>:
    db00:	ff 25 7a 0a 03 00    	jmpq   *0x30a7a(%rip)        # 3e580 <LLVMInitializeWebAssemblyTargetInfo@LLVM_11>
    db06:	68 ad 00 00 00       	pushq  $0xad
    db0b:	e9 10 f5 ff ff       	jmpq   d020 <.plt>

000000000000db10 <LLVMInitializeXCoreTargetInfo@plt>:
    db10:	ff 25 72 0a 03 00    	jmpq   *0x30a72(%rip)        # 3e588 <LLVMInitializeXCoreTargetInfo@LLVM_11>
    db16:	68 ae 00 00 00       	pushq  $0xae
    db1b:	e9 00 f5 ff ff       	jmpq   d020 <.plt>

000000000000db20 <__cxa_end_catch@plt>:
    db20:	ff 25 6a 0a 03 00    	jmpq   *0x30a6a(%rip)        # 3e590 <__cxa_end_catch@CXXABI_1.3>
    db26:	68 af 00 00 00       	pushq  $0xaf
    db2b:	e9 f0 f4 ff ff       	jmpq   d020 <.plt>

000000000000db30 <__cxa_rethrow@plt>:
    db30:	ff 25 62 0a 03 00    	jmpq   *0x30a62(%rip)        # 3e598 <__cxa_rethrow@CXXABI_1.3>
    db36:	68 b0 00 00 00       	pushq  $0xb0
    db3b:	e9 e0 f4 ff ff       	jmpq   d020 <.plt>

000000000000db40 <LLVMInitializeX86TargetInfo@plt>:
    db40:	ff 25 5a 0a 03 00    	jmpq   *0x30a5a(%rip)        # 3e5a0 <LLVMInitializeX86TargetInfo@LLVM_11>
    db46:	68 b1 00 00 00       	pushq  $0xb1
    db4b:	e9 d0 f4 ff ff       	jmpq   d020 <.plt>

000000000000db50 <LLVMInitializeLanaiTargetMC@plt>:
    db50:	ff 25 52 0a 03 00    	jmpq   *0x30a52(%rip)        # 3e5a8 <LLVMInitializeLanaiTargetMC@LLVM_11>
    db56:	68 b2 00 00 00       	pushq  $0xb2
    db5b:	e9 c0 f4 ff ff       	jmpq   d020 <.plt>

000000000000db60 <LLVMInitializeBPFAsmPrinter@plt>:
    db60:	ff 25 4a 0a 03 00    	jmpq   *0x30a4a(%rip)        # 3e5b0 <LLVMInitializeBPFAsmPrinter@LLVM_11>
    db66:	68 b3 00 00 00       	pushq  $0xb3
    db6b:	e9 b0 f4 ff ff       	jmpq   d020 <.plt>

000000000000db70 <_ZN6antlr43dfa3DFAC1EPNS_3atn13DecisionStateEm@plt>:
    db70:	ff 25 42 0a 03 00    	jmpq   *0x30a42(%rip)        # 3e5b8 <_ZN6antlr43dfa3DFAC1EPNS_3atn13DecisionStateEm>
    db76:	68 b4 00 00 00       	pushq  $0xb4
    db7b:	e9 a0 f4 ff ff       	jmpq   d020 <.plt>

000000000000db80 <LLVMInitializeSystemZTargetMC@plt>:
    db80:	ff 25 3a 0a 03 00    	jmpq   *0x30a3a(%rip)        # 3e5c0 <LLVMInitializeSystemZTargetMC@LLVM_11>
    db86:	68 b5 00 00 00       	pushq  $0xb5
    db8b:	e9 90 f4 ff ff       	jmpq   d020 <.plt>

000000000000db90 <_ZNKSt7__cxx1112basic_stringIcSt11char_traitsIcESaIcEE7compareEPKc@plt>:
    db90:	ff 25 32 0a 03 00    	jmpq   *0x30a32(%rip)        # 3e5c8 <_ZNKSt7__cxx1112basic_stringIcSt11char_traitsIcESaIcEE7compareEPKc@GLIBCXX_3.4.21>
    db96:	68 b6 00 00 00       	pushq  $0xb6
    db9b:	e9 80 f4 ff ff       	jmpq   d020 <.plt>

000000000000dba0 <LLVMInitializeARMAsmPrinter@plt>:
    dba0:	ff 25 2a 0a 03 00    	jmpq   *0x30a2a(%rip)        # 3e5d0 <LLVMInitializeARMAsmPrinter@LLVM_11>
    dba6:	68 b7 00 00 00       	pushq  $0xb7
    dbab:	e9 70 f4 ff ff       	jmpq   d020 <.plt>

000000000000dbb0 <__dynamic_cast@plt>:
    dbb0:	ff 25 22 0a 03 00    	jmpq   *0x30a22(%rip)        # 3e5d8 <__dynamic_cast@CXXABI_1.3>
    dbb6:	68 b8 00 00 00       	pushq  $0xb8
    dbbb:	e9 60 f4 ff ff       	jmpq   d020 <.plt>

000000000000dbc0 <_ZN4llvm6legacy11PassManagerC1Ev@plt>:
    dbc0:	ff 25 1a 0a 03 00    	jmpq   *0x30a1a(%rip)        # 3e5e0 <_ZN4llvm6legacy11PassManagerC1Ev@LLVM_11>
    dbc6:	68 b9 00 00 00       	pushq  $0xb9
    dbcb:	e9 50 f4 ff ff       	jmpq   d020 <.plt>

000000000000dbd0 <_ZNSt8ios_base4InitC1Ev@plt>:
    dbd0:	ff 25 12 0a 03 00    	jmpq   *0x30a12(%rip)        # 3e5e8 <_ZNSt8ios_base4InitC1Ev@GLIBCXX_3.4>
    dbd6:	68 ba 00 00 00       	pushq  $0xba
    dbdb:	e9 40 f4 ff ff       	jmpq   d020 <.plt>

000000000000dbe0 <_ZN4llvm4UsernwEmj@plt>:
    dbe0:	ff 25 0a 0a 03 00    	jmpq   *0x30a0a(%rip)        # 3e5f0 <_ZN4llvm4UsernwEmj@LLVM_11>
    dbe6:	68 bb 00 00 00       	pushq  $0xbb
    dbeb:	e9 30 f4 ff ff       	jmpq   d020 <.plt>

000000000000dbf0 <LLVMInitializeLanaiTarget@plt>:
    dbf0:	ff 25 02 0a 03 00    	jmpq   *0x30a02(%rip)        # 3e5f8 <LLVMInitializeLanaiTarget@LLVM_11>
    dbf6:	68 bc 00 00 00       	pushq  $0xbc
    dbfb:	e9 20 f4 ff ff       	jmpq   d020 <.plt>

000000000000dc00 <_ZN4llvm14raw_fd_ostreamD1Ev@plt>:
    dc00:	ff 25 fa 09 03 00    	jmpq   *0x309fa(%rip)        # 3e600 <_ZN4llvm14raw_fd_ostreamD1Ev@LLVM_11>
    dc06:	68 bd 00 00 00       	pushq  $0xbd
    dc0b:	e9 10 f4 ff ff       	jmpq   d020 <.plt>

000000000000dc10 <LLVMInitializePowerPCAsmPrinter@plt>:
    dc10:	ff 25 f2 09 03 00    	jmpq   *0x309f2(%rip)        # 3e608 <LLVMInitializePowerPCAsmPrinter@LLVM_11>
    dc16:	68 be 00 00 00       	pushq  $0xbe
    dc1b:	e9 00 f4 ff ff       	jmpq   d020 <.plt>

000000000000dc20 <LLVMInitializeMipsTargetMC@plt>:
    dc20:	ff 25 ea 09 03 00    	jmpq   *0x309ea(%rip)        # 3e610 <LLVMInitializeMipsTargetMC@LLVM_11>
    dc26:	68 bf 00 00 00       	pushq  $0xbf
    dc2b:	e9 f0 f3 ff ff       	jmpq   d020 <.plt>

000000000000dc30 <LLVMInitializeHexagonTargetInfo@plt>:
    dc30:	ff 25 e2 09 03 00    	jmpq   *0x309e2(%rip)        # 3e618 <LLVMInitializeHexagonTargetInfo@LLVM_11>
    dc36:	68 c0 00 00 00       	pushq  $0xc0
    dc3b:	e9 e0 f3 ff ff       	jmpq   d020 <.plt>

000000000000dc40 <_ZNSt7__cxx1112basic_stringIcSt11char_traitsIcESaIcEEaSERKS4_@plt>:
    dc40:	ff 25 da 09 03 00    	jmpq   *0x309da(%rip)        # 3e620 <_ZNSt7__cxx1112basic_stringIcSt11char_traitsIcESaIcEEaSERKS4_@GLIBCXX_3.4.21>
    dc46:	68 c1 00 00 00       	pushq  $0xc1
    dc4b:	e9 d0 f3 ff ff       	jmpq   d020 <.plt>

000000000000dc50 <LLVMInitializeAMDGPUTarget@plt>:
    dc50:	ff 25 d2 09 03 00    	jmpq   *0x309d2(%rip)        # 3e628 <LLVMInitializeAMDGPUTarget@LLVM_11>
    dc56:	68 c2 00 00 00       	pushq  $0xc2
    dc5b:	e9 c0 f3 ff ff       	jmpq   d020 <.plt>

000000000000dc60 <LLVMInitializeXCoreTargetMC@plt>:
    dc60:	ff 25 ca 09 03 00    	jmpq   *0x309ca(%rip)        # 3e630 <LLVMInitializeXCoreTargetMC@LLVM_11>
    dc66:	68 c3 00 00 00       	pushq  $0xc3
    dc6b:	e9 b0 f3 ff ff       	jmpq   d020 <.plt>

000000000000dc70 <_ZN6antlr43atn15ATNDeserializer11deserializeERKSt6vectorItSaItEE@plt>:
    dc70:	ff 25 c2 09 03 00    	jmpq   *0x309c2(%rip)        # 3e638 <_ZN6antlr43atn15ATNDeserializer11deserializeERKSt6vectorItSaItEE>
    dc76:	68 c4 00 00 00       	pushq  $0xc4
    dc7b:	e9 a0 f3 ff ff       	jmpq   d020 <.plt>

000000000000dc80 <_ZNSaIcED1Ev@plt>:
    dc80:	ff 25 ba 09 03 00    	jmpq   *0x309ba(%rip)        # 3e640 <_ZNSaIcED1Ev@GLIBCXX_3.4>
    dc86:	68 c5 00 00 00       	pushq  $0xc5
    dc8b:	e9 90 f3 ff ff       	jmpq   d020 <.plt>

Disassembly of section .plt.got:

000000000000dc90 <_ZN6antlr43atn3ATND1Ev@plt>:
    dc90:	ff 25 a2 02 03 00    	jmpq   *0x302a2(%rip)        # 3df38 <_ZN6antlr43atn3ATND1Ev>
    dc96:	66 90                	xchg   %ax,%ax

Disassembly of section .text:

000000000000dca0 <_start>:
    dca0:	f3 0f 1e fa          	endbr64 
    dca4:	31 ed                	xor    %ebp,%ebp
    dca6:	49 89 d1             	mov    %rdx,%r9
    dca9:	5e                   	pop    %rsi
    dcaa:	48 89 e2             	mov    %rsp,%rdx
    dcad:	48 83 e4 f0          	and    $0xfffffffffffffff0,%rsp
    dcb1:	50                   	push   %rax
    dcb2:	54                   	push   %rsp
    dcb3:	4c 8d 05 06 bf 01 00 	lea    0x1bf06(%rip),%r8        # 29bc0 <__libc_csu_fini>
    dcba:	48 8d 0d 8f be 01 00 	lea    0x1be8f(%rip),%rcx        # 29b50 <__libc_csu_init>
    dcc1:	48 8d 3d d1 00 00 00 	lea    0xd1(%rip),%rdi        # dd99 <main>
    dcc8:	ff 15 82 02 03 00    	callq  *0x30282(%rip)        # 3df50 <__libc_start_main@GLIBC_2.2.5>
    dcce:	f4                   	hlt    
    dccf:	90                   	nop

000000000000dcd0 <deregister_tm_clones>:
    dcd0:	48 8d 3d 99 09 03 00 	lea    0x30999(%rip),%rdi        # 3e670 <__TMC_END__>
    dcd7:	48 8d 05 92 09 03 00 	lea    0x30992(%rip),%rax        # 3e670 <__TMC_END__>
    dcde:	48 39 f8             	cmp    %rdi,%rax
    dce1:	74 15                	je     dcf8 <deregister_tm_clones+0x28>
    dce3:	48 8b 05 e6 02 03 00 	mov    0x302e6(%rip),%rax        # 3dfd0 <_ITM_deregisterTMCloneTable>
    dcea:	48 85 c0             	test   %rax,%rax
    dced:	74 09                	je     dcf8 <deregister_tm_clones+0x28>
    dcef:	ff e0                	jmpq   *%rax
    dcf1:	0f 1f 80 00 00 00 00 	nopl   0x0(%rax)
    dcf8:	c3                   	retq   
    dcf9:	0f 1f 80 00 00 00 00 	nopl   0x0(%rax)

000000000000dd00 <register_tm_clones>:
    dd00:	48 8d 3d 69 09 03 00 	lea    0x30969(%rip),%rdi        # 3e670 <__TMC_END__>
    dd07:	48 8d 35 62 09 03 00 	lea    0x30962(%rip),%rsi        # 3e670 <__TMC_END__>
    dd0e:	48 29 fe             	sub    %rdi,%rsi
    dd11:	48 89 f0             	mov    %rsi,%rax
    dd14:	48 c1 ee 3f          	shr    $0x3f,%rsi
    dd18:	48 c1 f8 03          	sar    $0x3,%rax
    dd1c:	48 01 c6             	add    %rax,%rsi
    dd1f:	48 d1 fe             	sar    %rsi
    dd22:	74 14                	je     dd38 <register_tm_clones+0x38>
    dd24:	48 8b 05 95 02 03 00 	mov    0x30295(%rip),%rax        # 3dfc0 <_ITM_registerTMCloneTable>
    dd2b:	48 85 c0             	test   %rax,%rax
    dd2e:	74 08                	je     dd38 <register_tm_clones+0x38>
    dd30:	ff e0                	jmpq   *%rax
    dd32:	66 0f 1f 44 00 00    	nopw   0x0(%rax,%rax,1)
    dd38:	c3                   	retq   
    dd39:	0f 1f 80 00 00 00 00 	nopl   0x0(%rax)

000000000000dd40 <__do_global_dtors_aux>:
    dd40:	f3 0f 1e fa          	endbr64 
    dd44:	80 3d 35 09 03 00 00 	cmpb   $0x0,0x30935(%rip)        # 3e680 <completed.0>
    dd4b:	75 33                	jne    dd80 <__do_global_dtors_aux+0x40>
    dd4d:	55                   	push   %rbp
    dd4e:	48 83 3d 8a 02 03 00 	cmpq   $0x0,0x3028a(%rip)        # 3dfe0 <__cxa_finalize@GLIBC_2.2.5>
    dd55:	00 
    dd56:	48 89 e5             	mov    %rsp,%rbp
    dd59:	74 0d                	je     dd68 <__do_global_dtors_aux+0x28>
    dd5b:	48 8b 3d ee 08 03 00 	mov    0x308ee(%rip),%rdi        # 3e650 <__dso_handle>
    dd62:	ff 15 78 02 03 00    	callq  *0x30278(%rip)        # 3dfe0 <__cxa_finalize@GLIBC_2.2.5>
    dd68:	e8 63 ff ff ff       	callq  dcd0 <deregister_tm_clones>
    dd6d:	c6 05 0c 09 03 00 01 	movb   $0x1,0x3090c(%rip)        # 3e680 <completed.0>
    dd74:	5d                   	pop    %rbp
    dd75:	c3                   	retq   
    dd76:	66 2e 0f 1f 84 00 00 	nopw   %cs:0x0(%rax,%rax,1)
    dd7d:	00 00 00 
    dd80:	c3                   	retq   
    dd81:	66 66 2e 0f 1f 84 00 	data16 nopw %cs:0x0(%rax,%rax,1)
    dd88:	00 00 00 00 
    dd8c:	0f 1f 40 00          	nopl   0x0(%rax)

000000000000dd90 <frame_dummy>:
    dd90:	f3 0f 1e fa          	endbr64 
    dd94:	e9 67 ff ff ff       	jmpq   dd00 <register_tm_clones>

000000000000dd99 <main>:
    dd99:	55                   	push   %rbp
    dd9a:	48 89 e5             	mov    %rsp,%rbp
    dd9d:	53                   	push   %rbx
    dd9e:	48 81 ec a8 0a 00 00 	sub    $0xaa8,%rsp
    dda5:	64 48 8b 04 25 28 00 	mov    %fs:0x28,%rax
    ddac:	00 00 
    ddae:	48 89 45 e8          	mov    %rax,-0x18(%rbp)
    ddb2:	31 c0                	xor    %eax,%eax
    ddb4:	e8 b9 16 00 00       	callq  f472 <_ZN4llvm24InitializeAllTargetInfosEv>
    ddb9:	e8 10 17 00 00       	callq  f4ce <_ZN4llvm20InitializeAllTargetsEv>
    ddbe:	e8 6c 17 00 00       	callq  f52f <_ZN4llvm22InitializeAllTargetMCsEv>
    ddc3:	e8 1f 18 00 00       	callq  f5e7 <_ZN4llvm23InitializeAllAsmParsersEv>
    ddc8:	e8 be 17 00 00       	callq  f58b <_ZN4llvm24InitializeAllAsmPrintersEv>
    ddcd:	48 8d 85 f0 fa ff ff 	lea    -0x510(%rbp),%rax
    ddd4:	48 89 c7             	mov    %rax,%rdi
    ddd7:	e8 c4 f5 ff ff       	callq  d3a0 <_ZNSt14basic_ifstreamIcSt11char_traitsIcEEC1Ev@plt>
    dddc:	48 8d 85 f0 fa ff ff 	lea    -0x510(%rbp),%rax
    dde3:	ba 08 00 00 00       	mov    $0x8,%edx
    dde8:	48 8d 35 81 c5 01 00 	lea    0x1c581(%rip),%rsi        # 2a370 <_ZStL10adopt_lock+0xd>
    ddef:	48 89 c7             	mov    %rax,%rdi
    ddf2:	e8 f9 fc ff ff       	callq  daf0 <_ZNSt14basic_ifstreamIcSt11char_traitsIcEE4openEPKcSt13_Ios_Openmode@plt>
    ddf7:	48 8d 95 f0 fa ff ff 	lea    -0x510(%rbp),%rdx
    ddfe:	48 8d 85 c0 f6 ff ff 	lea    -0x940(%rbp),%rax
    de05:	48 89 d6             	mov    %rdx,%rsi
    de08:	48 89 c7             	mov    %rax,%rdi
    de0b:	e8 50 fc ff ff       	callq  da60 <_ZN6antlr416ANTLRInputStreamC1ERSi@plt>
    de10:	48 8d 95 c0 f6 ff ff 	lea    -0x940(%rbp),%rdx
    de17:	48 8d 85 10 f8 ff ff 	lea    -0x7f0(%rbp),%rax
    de1e:	48 89 d6             	mov    %rdx,%rsi
    de21:	48 89 c7             	mov    %rax,%rdi
    de24:	e8 df 7b 00 00       	callq  15a08 <_ZN7dzLexerC1EPN6antlr410CharStreamE>
    de29:	48 8d 85 10 f8 ff ff 	lea    -0x7f0(%rbp),%rax
    de30:	48 8d 50 78          	lea    0x78(%rax),%rdx
    de34:	48 8d 85 e0 f5 ff ff 	lea    -0xa20(%rbp),%rax
    de3b:	48 89 d6             	mov    %rdx,%rsi
    de3e:	48 89 c7             	mov    %rax,%rdi
    de41:	e8 3a f8 ff ff       	callq  d680 <_ZN6antlr417CommonTokenStreamC1EPNS_11TokenSourceE@plt>
    de46:	48 8d 95 e0 f5 ff ff 	lea    -0xa20(%rbp),%rdx
    de4d:	48 8d 85 10 f7 ff ff 	lea    -0x8f0(%rbp),%rax
    de54:	48 89 d6             	mov    %rdx,%rsi
    de57:	48 89 c7             	mov    %rax,%rdi
    de5a:	e8 bd d8 00 00       	callq  1b71c <_ZN8dzParserC1EPN6antlr411TokenStreamE>
    de5f:	48 8d 85 10 f7 ff ff 	lea    -0x8f0(%rbp),%rax
    de66:	48 89 c7             	mov    %rax,%rdi
    de69:	e8 22 dc 00 00       	callq  1ba90 <_ZN8dzParser7programEv>
    de6e:	48 89 85 60 f5 ff ff 	mov    %rax,-0xaa0(%rbp)
    de75:	48 8d 85 58 f5 ff ff 	lea    -0xaa8(%rbp),%rax
    de7c:	48 89 c7             	mov    %rax,%rdi
    de7f:	e8 6c f8 ff ff       	callq  d6f0 <_ZN4llvm11LLVMContextC1Ev@plt>
    de84:	48 8d 85 20 f6 ff ff 	lea    -0x9e0(%rbp),%rax
    de8b:	48 8d 35 e6 c4 01 00 	lea    0x1c4e6(%rip),%rsi        # 2a378 <_ZStL10adopt_lock+0x15>
    de92:	48 89 c7             	mov    %rax,%rdi
    de95:	e8 24 06 00 00       	callq  e4be <_ZN4llvm9StringRefC1EPKc>
    de9a:	48 8d 8d 58 f5 ff ff 	lea    -0xaa8(%rbp),%rcx
    dea1:	48 8b b5 20 f6 ff ff 	mov    -0x9e0(%rbp),%rsi
    dea8:	48 8b 95 28 f6 ff ff 	mov    -0x9d8(%rbp),%rdx
    deaf:	48 8d 85 00 fd ff ff 	lea    -0x300(%rbp),%rax
    deb6:	48 89 c7             	mov    %rax,%rdi
    deb9:	e8 02 f8 ff ff       	callq  d6c0 <_ZN4llvm6ModuleC1ENS_9StringRefERNS_11LLVMContextE@plt>
    debe:	48 8d 95 00 fd ff ff 	lea    -0x300(%rbp),%rdx
    dec5:	48 8d b5 58 f5 ff ff 	lea    -0xaa8(%rbp),%rsi
    decc:	48 8d 85 b0 f5 ff ff 	lea    -0xa50(%rbp),%rax
    ded3:	41 b8 00 00 00 00    	mov    $0x0,%r8d
    ded9:	b9 00 00 00 00       	mov    $0x0,%ecx
    dede:	48 89 c7             	mov    %rax,%rdi
    dee1:	e8 18 26 00 00       	callq  104fe <_ZN7VisitorC1ERN4llvm11LLVMContextERNS0_6ModuleEPNS0_9IRBuilderINS0_14ConstantFolderENS0_24IRBuilderDefaultInserterEEEPNS0_8FunctionE>
    dee6:	48 8b 85 60 f5 ff ff 	mov    -0xaa0(%rbp),%rax
    deed:	48 8b 00             	mov    (%rax),%rax
    def0:	48 83 c0 30          	add    $0x30,%rax
    def4:	4c 8b 00             	mov    (%rax),%r8
    def7:	48 8d 85 80 f5 ff ff 	lea    -0xa80(%rbp),%rax
    defe:	48 8d 95 b0 f5 ff ff 	lea    -0xa50(%rbp),%rdx
    df05:	48 8b 8d 60 f5 ff ff 	mov    -0xaa0(%rbp),%rcx
    df0c:	48 89 ce             	mov    %rcx,%rsi
    df0f:	48 89 c7             	mov    %rax,%rdi
    df12:	41 ff d0             	callq  *%r8
    df15:	48 8d 85 80 f5 ff ff 	lea    -0xa80(%rbp),%rax
    df1c:	48 89 c7             	mov    %rax,%rdi
    df1f:	e8 fc f7 ff ff       	callq  d720 <_ZN8antlrcpp3AnyD1Ev@plt>
    df24:	e8 87 f8 ff ff       	callq  d7b0 <_ZN4llvm4errsEv@plt>
    df29:	48 89 c6             	mov    %rax,%rsi
    df2c:	48 8d 85 00 fd ff ff 	lea    -0x300(%rbp),%rax
    df33:	41 b8 00 00 00 00    	mov    $0x0,%r8d
    df39:	b9 00 00 00 00       	mov    $0x0,%ecx
    df3e:	ba 00 00 00 00       	mov    $0x0,%edx
    df43:	48 89 c7             	mov    %rax,%rdi
    df46:	e8 55 f5 ff ff       	callq  d4a0 <_ZNK4llvm6Module5printERNS_11raw_ostreamEPNS_24AssemblyAnnotationWriterEbb@plt>
    df4b:	48 8d 85 80 f6 ff ff 	lea    -0x980(%rbp),%rax
    df52:	48 89 c7             	mov    %rax,%rdi
    df55:	e8 86 fa ff ff       	callq  d9e0 <_ZNSt7__cxx1112basic_stringIcSt11char_traitsIcESaIcEEC1Ev@plt>
    df5a:	48 8d 85 a0 f6 ff ff 	lea    -0x960(%rbp),%rax
    df61:	48 89 c7             	mov    %rax,%rdi
    df64:	e8 f7 f7 ff ff       	callq  d760 <_ZN4llvm3sys22getDefaultTargetTripleB5cxx11Ev@plt>
    df69:	48 8d 95 80 f6 ff ff 	lea    -0x980(%rbp),%rdx
    df70:	48 8d 85 a0 f6 ff ff 	lea    -0x960(%rbp),%rax
    df77:	48 89 d6             	mov    %rdx,%rsi
    df7a:	48 89 c7             	mov    %rax,%rdi
    df7d:	e8 de f5 ff ff       	callq  d560 <_ZN4llvm14TargetRegistry12lookupTargetERKNSt7__cxx1112basic_stringIcSt11char_traitsIcESaIcEEERS6_@plt>
    df82:	48 89 85 68 f5 ff ff 	mov    %rax,-0xa98(%rbp)
    df89:	48 83 bd 68 f5 ff ff 	cmpq   $0x0,-0xa98(%rbp)
    df90:	00 
    df91:	75 24                	jne    dfb7 <main+0x21e>
    df93:	e8 18 f8 ff ff       	callq  d7b0 <_ZN4llvm4errsEv@plt>
    df98:	48 89 c2             	mov    %rax,%rdx
    df9b:	48 8d 85 80 f6 ff ff 	lea    -0x980(%rbp),%rax
    dfa2:	48 89 c6             	mov    %rax,%rsi
    dfa5:	48 89 d7             	mov    %rdx,%rdi
    dfa8:	e8 bb 05 00 00       	callq  e568 <_ZN4llvm11raw_ostreamlsERKNSt7__cxx1112basic_stringIcSt11char_traitsIcESaIcEEE>
    dfad:	bb 01 00 00 00       	mov    $0x1,%ebx
    dfb2:	e9 16 02 00 00       	jmpq   e1cd <main+0x434>
    dfb7:	48 8d 85 78 f5 ff ff 	lea    -0xa88(%rbp),%rax
    dfbe:	48 89 c7             	mov    %rax,%rdi
    dfc1:	e8 4c 3e 00 00       	callq  11e12 <_ZN4llvm8OptionalINS_5Reloc5ModelEEC1Ev>
    dfc6:	48 8d 85 80 f5 ff ff 	lea    -0xa80(%rbp),%rax
    dfcd:	be 01 00 00 00       	mov    $0x1,%esi
    dfd2:	48 89 c7             	mov    %rax,%rdi
    dfd5:	e8 54 3e 00 00       	callq  11e2e <_ZN4llvm8OptionalINS_9CodeModel5ModelEEC1ENS_8NoneTypeE>
    dfda:	48 8d 85 30 f9 ff ff 	lea    -0x6d0(%rbp),%rax
    dfe1:	48 89 c7             	mov    %rax,%rdi
    dfe4:	e8 dd 16 00 00       	callq  f6c6 <_ZN4llvm13TargetOptionsC1Ev>
    dfe9:	48 8d 85 20 f6 ff ff 	lea    -0x9e0(%rbp),%rax
    dff0:	48 8d 35 69 c3 01 00 	lea    0x1c369(%rip),%rsi        # 2a360 <_ZN4llvmL13UndefMaskElemE+0x4>
    dff7:	48 89 c7             	mov    %rax,%rdi
    dffa:	e8 bf 04 00 00       	callq  e4be <_ZN4llvm9StringRefC1EPKc>
    dfff:	48 8d 85 a0 f5 ff ff 	lea    -0xa60(%rbp),%rax
    e006:	48 8d 35 6e c3 01 00 	lea    0x1c36e(%rip),%rsi        # 2a37b <_ZStL10adopt_lock+0x18>
    e00d:	48 89 c7             	mov    %rax,%rdi
    e010:	e8 a9 04 00 00       	callq  e4be <_ZN4llvm9StringRefC1EPKc>
    e015:	48 8d 95 a0 f6 ff ff 	lea    -0x960(%rbp),%rdx
    e01c:	48 8d 85 90 f5 ff ff 	lea    -0xa70(%rbp),%rax
    e023:	48 89 d6             	mov    %rdx,%rsi
    e026:	48 89 c7             	mov    %rax,%rdi
    e029:	e8 d0 04 00 00       	callq  e4fe <_ZN4llvm9StringRefC1ERKNSt7__cxx1112basic_stringIcSt11char_traitsIcESaIcEEE>
    e02e:	4c 8d 85 30 f9 ff ff 	lea    -0x6d0(%rbp),%r8
    e035:	48 8b 8d a0 f5 ff ff 	mov    -0xa60(%rbp),%rcx
    e03c:	48 8b bd a8 f5 ff ff 	mov    -0xa58(%rbp),%rdi
    e043:	48 8b b5 90 f5 ff ff 	mov    -0xa70(%rbp),%rsi
    e04a:	48 8b 95 98 f5 ff ff 	mov    -0xa68(%rbp),%rdx
    e051:	48 8b 85 68 f5 ff ff 	mov    -0xa98(%rbp),%rax
    e058:	6a 00                	pushq  $0x0
    e05a:	6a 02                	pushq  $0x2
    e05c:	ff b5 80 f5 ff ff    	pushq  -0xa80(%rbp)
    e062:	ff b5 78 f5 ff ff    	pushq  -0xa88(%rbp)
    e068:	ff b5 28 f6 ff ff    	pushq  -0x9d8(%rbp)
    e06e:	ff b5 20 f6 ff ff    	pushq  -0x9e0(%rbp)
    e074:	4d 89 c1             	mov    %r8,%r9
    e077:	49 89 f8             	mov    %rdi,%r8
    e07a:	48 89 c7             	mov    %rax,%rdi
    e07d:	e8 9c 12 00 00       	callq  f31e <_ZNK4llvm6Target19createTargetMachineENS_9StringRefES1_S1_RKNS_13TargetOptionsENS_8OptionalINS_5Reloc5ModelEEENS5_INS_9CodeModel5ModelEEENS_10CodeGenOpt5LevelEb>
    e082:	48 83 c4 30          	add    $0x30,%rsp
    e086:	48 89 85 70 f5 ff ff 	mov    %rax,-0xa90(%rbp)
    e08d:	48 8d 85 30 f9 ff ff 	lea    -0x6d0(%rbp),%rax
    e094:	48 89 c7             	mov    %rax,%rdi
    e097:	e8 26 2e 00 00       	callq  10ec2 <_ZN4llvm13TargetOptionsD1Ev>
    e09c:	48 8d 85 30 f9 ff ff 	lea    -0x6d0(%rbp),%rax
    e0a3:	48 8b 95 70 f5 ff ff 	mov    -0xa90(%rbp),%rdx
    e0aa:	48 89 d6             	mov    %rdx,%rsi
    e0ad:	48 89 c7             	mov    %rax,%rdi
    e0b0:	e8 cb 18 00 00       	callq  f980 <_ZNK4llvm13TargetMachine16createDataLayoutEv>
    e0b5:	48 8d 95 30 f9 ff ff 	lea    -0x6d0(%rbp),%rdx
    e0bc:	48 8d 85 00 fd ff ff 	lea    -0x300(%rbp),%rax
    e0c3:	48 89 d6             	mov    %rdx,%rsi
    e0c6:	48 89 c7             	mov    %rax,%rdi
    e0c9:	e8 c2 f1 ff ff       	callq  d290 <_ZN4llvm6Module13setDataLayoutERKNS_10DataLayoutE@plt>
    e0ce:	48 8d 85 30 f9 ff ff 	lea    -0x6d0(%rbp),%rax
    e0d5:	48 89 c7             	mov    %rax,%rdi
    e0d8:	e8 83 f3 ff ff       	callq  d460 <_ZN4llvm10DataLayoutD1Ev@plt>
    e0dd:	48 8d 85 90 f5 ff ff 	lea    -0xa70(%rbp),%rax
    e0e4:	48 89 c7             	mov    %rax,%rdi
    e0e7:	e8 92 03 00 00       	callq  e47e <_ZNSt10error_codeC1Ev>
    e0ec:	48 8d 85 a0 f5 ff ff 	lea    -0xa60(%rbp),%rax
    e0f3:	48 8d 35 89 c2 01 00 	lea    0x1c289(%rip),%rsi        # 2a383 <_ZStL10adopt_lock+0x20>
    e0fa:	48 89 c7             	mov    %rax,%rdi
    e0fd:	e8 bc 03 00 00       	callq  e4be <_ZN4llvm9StringRefC1EPKc>
    e102:	48 8d 8d 90 f5 ff ff 	lea    -0xa70(%rbp),%rcx
    e109:	48 8b b5 a0 f5 ff ff 	mov    -0xa60(%rbp),%rsi
    e110:	48 8b 95 a8 f5 ff ff 	mov    -0xa58(%rbp),%rdx
    e117:	48 8d 85 20 f6 ff ff 	lea    -0x9e0(%rbp),%rax
    e11e:	41 b8 00 00 00 00    	mov    $0x0,%r8d
    e124:	48 89 c7             	mov    %rax,%rdi
    e127:	e8 c4 f1 ff ff       	callq  d2f0 <_ZN4llvm14raw_fd_ostreamC1ENS_9StringRefERSt10error_codeNS_3sys2fs9OpenFlagsE@plt>
    e12c:	48 8d 85 a0 f5 ff ff 	lea    -0xa60(%rbp),%rax
    e133:	48 89 c7             	mov    %rax,%rdi
    e136:	e8 85 fa ff ff       	callq  dbc0 <_ZN4llvm6legacy11PassManagerC1Ev@plt>
    e13b:	48 8b 85 70 f5 ff ff 	mov    -0xa90(%rbp),%rax
    e142:	48 8b 00             	mov    (%rax),%rax
    e145:	48 83 c0 50          	add    $0x50,%rax
    e149:	4c 8b 10             	mov    (%rax),%r10
    e14c:	48 8d 95 20 f6 ff ff 	lea    -0x9e0(%rbp),%rdx
    e153:	48 8d b5 a0 f5 ff ff 	lea    -0xa60(%rbp),%rsi
    e15a:	48 8b 85 70 f5 ff ff 	mov    -0xa90(%rbp),%rax
    e161:	48 83 ec 08          	sub    $0x8,%rsp
    e165:	6a 00                	pushq  $0x0
    e167:	41 b9 01 00 00 00    	mov    $0x1,%r9d
    e16d:	41 b8 01 00 00 00    	mov    $0x1,%r8d
    e173:	b9 00 00 00 00       	mov    $0x0,%ecx
    e178:	48 89 c7             	mov    %rax,%rdi
    e17b:	41 ff d2             	callq  *%r10
    e17e:	48 83 c4 10          	add    $0x10,%rsp
    e182:	48 8d 95 00 fd ff ff 	lea    -0x300(%rbp),%rdx
    e189:	48 8d 85 a0 f5 ff ff 	lea    -0xa60(%rbp),%rax
    e190:	48 89 d6             	mov    %rdx,%rsi
    e193:	48 89 c7             	mov    %rax,%rdi
    e196:	e8 b5 ef ff ff       	callq  d150 <_ZN4llvm6legacy11PassManager3runERNS_6ModuleE@plt>
    e19b:	48 8d 85 20 f6 ff ff 	lea    -0x9e0(%rbp),%rax
    e1a2:	48 89 c7             	mov    %rax,%rdi
    e1a5:	e8 8e 03 00 00       	callq  e538 <_ZN4llvm11raw_ostream5flushEv>
    e1aa:	bb 00 00 00 00       	mov    $0x0,%ebx
    e1af:	48 8d 85 a0 f5 ff ff 	lea    -0xa60(%rbp),%rax
    e1b6:	48 89 c7             	mov    %rax,%rdi
    e1b9:	e8 22 f0 ff ff       	callq  d1e0 <_ZN4llvm6legacy11PassManagerD1Ev@plt>
    e1be:	48 8d 85 20 f6 ff ff 	lea    -0x9e0(%rbp),%rax
    e1c5:	48 89 c7             	mov    %rax,%rdi
    e1c8:	e8 33 fa ff ff       	callq  dc00 <_ZN4llvm14raw_fd_ostreamD1Ev@plt>
    e1cd:	48 8d 85 a0 f6 ff ff 	lea    -0x960(%rbp),%rax
    e1d4:	48 89 c7             	mov    %rax,%rdi
    e1d7:	e8 94 f2 ff ff       	callq  d470 <_ZNSt7__cxx1112basic_stringIcSt11char_traitsIcESaIcEED1Ev@plt>
    e1dc:	48 8d 85 80 f6 ff ff 	lea    -0x980(%rbp),%rax
    e1e3:	48 89 c7             	mov    %rax,%rdi
    e1e6:	e8 85 f2 ff ff       	callq  d470 <_ZNSt7__cxx1112basic_stringIcSt11char_traitsIcESaIcEED1Ev@plt>
    e1eb:	48 8d 85 b0 f5 ff ff 	lea    -0xa50(%rbp),%rax
    e1f2:	48 89 c7             	mov    %rax,%rdi
    e1f5:	e8 8e 70 00 00       	callq  15288 <_ZN7VisitorD1Ev>
    e1fa:	48 8d 85 00 fd ff ff 	lea    -0x300(%rbp),%rax
    e201:	48 89 c7             	mov    %rax,%rdi
    e204:	e8 f7 ee ff ff       	callq  d100 <_ZN4llvm6ModuleD1Ev@plt>
    e209:	48 8d 85 58 f5 ff ff 	lea    -0xaa8(%rbp),%rax
    e210:	48 89 c7             	mov    %rax,%rdi
    e213:	e8 68 f8 ff ff       	callq  da80 <_ZN4llvm11LLVMContextD1Ev@plt>
    e218:	48 8d 85 10 f7 ff ff 	lea    -0x8f0(%rbp),%rax
    e21f:	48 89 c7             	mov    %rax,%rdi
    e222:	e8 a7 d5 00 00       	callq  1b7ce <_ZN8dzParserD1Ev>
    e227:	48 8d 85 e0 f5 ff ff 	lea    -0xa20(%rbp),%rax
    e22e:	48 89 c7             	mov    %rax,%rdi
    e231:	e8 be 71 00 00       	callq  153f4 <_ZN6antlr417CommonTokenStreamD1Ev>
    e236:	48 8d 85 10 f8 ff ff 	lea    -0x7f0(%rbp),%rax
    e23d:	48 89 c7             	mov    %rax,%rdi
    e240:	e8 8b 78 00 00       	callq  15ad0 <_ZN7dzLexerD1Ev>
    e245:	48 8d 85 c0 f6 ff ff 	lea    -0x940(%rbp),%rax
    e24c:	48 89 c7             	mov    %rax,%rdi
    e24f:	e8 bc 70 00 00       	callq  15310 <_ZN6antlr416ANTLRInputStreamD1Ev>
    e254:	48 8d 85 f0 fa ff ff 	lea    -0x510(%rbp),%rax
    e25b:	48 89 c7             	mov    %rax,%rdi
    e25e:	e8 5d f3 ff ff       	callq  d5c0 <_ZNSt14basic_ifstreamIcSt11char_traitsIcEED1Ev@plt>
    e263:	89 d8                	mov    %ebx,%eax
    e265:	48 8b 4d e8          	mov    -0x18(%rbp),%rcx
    e269:	64 48 2b 0c 25 28 00 	sub    %fs:0x28,%rcx
    e270:	00 00 
    e272:	0f 84 26 01 00 00    	je     e39e <main+0x605>
    e278:	e9 1c 01 00 00       	jmpq   e399 <main+0x600>
    e27d:	48 89 c3             	mov    %rax,%rbx
    e280:	48 8d 85 30 f9 ff ff 	lea    -0x6d0(%rbp),%rax
    e287:	48 89 c7             	mov    %rax,%rdi
    e28a:	e8 33 2c 00 00       	callq  10ec2 <_ZN4llvm13TargetOptionsD1Ev>
    e28f:	eb 3f                	jmp    e2d0 <main+0x537>
    e291:	48 89 c3             	mov    %rax,%rbx
    e294:	48 8d 85 30 f9 ff ff 	lea    -0x6d0(%rbp),%rax
    e29b:	48 89 c7             	mov    %rax,%rdi
    e29e:	e8 bd f1 ff ff       	callq  d460 <_ZN4llvm10DataLayoutD1Ev@plt>
    e2a3:	eb 2b                	jmp    e2d0 <main+0x537>
    e2a5:	48 89 c3             	mov    %rax,%rbx
    e2a8:	48 8d 85 a0 f5 ff ff 	lea    -0xa60(%rbp),%rax
    e2af:	48 89 c7             	mov    %rax,%rdi
    e2b2:	e8 29 ef ff ff       	callq  d1e0 <_ZN4llvm6legacy11PassManagerD1Ev@plt>
    e2b7:	eb 03                	jmp    e2bc <main+0x523>
    e2b9:	48 89 c3             	mov    %rax,%rbx
    e2bc:	48 8d 85 20 f6 ff ff 	lea    -0x9e0(%rbp),%rax
    e2c3:	48 89 c7             	mov    %rax,%rdi
    e2c6:	e8 35 f9 ff ff       	callq  dc00 <_ZN4llvm14raw_fd_ostreamD1Ev@plt>
    e2cb:	eb 03                	jmp    e2d0 <main+0x537>
    e2cd:	48 89 c3             	mov    %rax,%rbx
    e2d0:	48 8d 85 a0 f6 ff ff 	lea    -0x960(%rbp),%rax
    e2d7:	48 89 c7             	mov    %rax,%rdi
    e2da:	e8 91 f1 ff ff       	callq  d470 <_ZNSt7__cxx1112basic_stringIcSt11char_traitsIcESaIcEED1Ev@plt>
    e2df:	eb 03                	jmp    e2e4 <main+0x54b>
    e2e1:	48 89 c3             	mov    %rax,%rbx
    e2e4:	48 8d 85 80 f6 ff ff 	lea    -0x980(%rbp),%rax
    e2eb:	48 89 c7             	mov    %rax,%rdi
    e2ee:	e8 7d f1 ff ff       	callq  d470 <_ZNSt7__cxx1112basic_stringIcSt11char_traitsIcESaIcEED1Ev@plt>
    e2f3:	eb 03                	jmp    e2f8 <main+0x55f>
    e2f5:	48 89 c3             	mov    %rax,%rbx
    e2f8:	48 8d 85 b0 f5 ff ff 	lea    -0xa50(%rbp),%rax
    e2ff:	48 89 c7             	mov    %rax,%rdi
    e302:	e8 81 6f 00 00       	callq  15288 <_ZN7VisitorD1Ev>
    e307:	48 8d 85 00 fd ff ff 	lea    -0x300(%rbp),%rax
    e30e:	48 89 c7             	mov    %rax,%rdi
    e311:	e8 ea ed ff ff       	callq  d100 <_ZN4llvm6ModuleD1Ev@plt>
    e316:	eb 03                	jmp    e31b <main+0x582>
    e318:	48 89 c3             	mov    %rax,%rbx
    e31b:	48 8d 85 58 f5 ff ff 	lea    -0xaa8(%rbp),%rax
    e322:	48 89 c7             	mov    %rax,%rdi
    e325:	e8 56 f7 ff ff       	callq  da80 <_ZN4llvm11LLVMContextD1Ev@plt>
    e32a:	eb 03                	jmp    e32f <main+0x596>
    e32c:	48 89 c3             	mov    %rax,%rbx
    e32f:	48 8d 85 10 f7 ff ff 	lea    -0x8f0(%rbp),%rax
    e336:	48 89 c7             	mov    %rax,%rdi
    e339:	e8 90 d4 00 00       	callq  1b7ce <_ZN8dzParserD1Ev>
    e33e:	eb 03                	jmp    e343 <main+0x5aa>
    e340:	48 89 c3             	mov    %rax,%rbx
    e343:	48 8d 85 e0 f5 ff ff 	lea    -0xa20(%rbp),%rax
    e34a:	48 89 c7             	mov    %rax,%rdi
    e34d:	e8 a2 70 00 00       	callq  153f4 <_ZN6antlr417CommonTokenStreamD1Ev>
    e352:	eb 03                	jmp    e357 <main+0x5be>
    e354:	48 89 c3             	mov    %rax,%rbx
    e357:	48 8d 85 10 f8 ff ff 	lea    -0x7f0(%rbp),%rax
    e35e:	48 89 c7             	mov    %rax,%rdi
    e361:	e8 6a 77 00 00       	callq  15ad0 <_ZN7dzLexerD1Ev>
    e366:	eb 03                	jmp    e36b <main+0x5d2>
    e368:	48 89 c3             	mov    %rax,%rbx
    e36b:	48 8d 85 c0 f6 ff ff 	lea    -0x940(%rbp),%rax
    e372:	48 89 c7             	mov    %rax,%rdi
    e375:	e8 96 6f 00 00       	callq  15310 <_ZN6antlr416ANTLRInputStreamD1Ev>
    e37a:	eb 03                	jmp    e37f <main+0x5e6>
    e37c:	48 89 c3             	mov    %rax,%rbx
    e37f:	48 8d 85 f0 fa ff ff 	lea    -0x510(%rbp),%rax
    e386:	48 89 c7             	mov    %rax,%rdi
    e389:	e8 32 f2 ff ff       	callq  d5c0 <_ZNSt14basic_ifstreamIcSt11char_traitsIcEED1Ev@plt>
    e38e:	48 89 d8             	mov    %rbx,%rax
    e391:	48 89 c7             	mov    %rax,%rdi
    e394:	e8 e7 f3 ff ff       	callq  d780 <_Unwind_Resume@plt>
    e399:	e8 22 ed ff ff       	callq  d0c0 <__stack_chk_fail@plt>
    e39e:	48 8b 5d f8          	mov    -0x8(%rbp),%rbx
    e3a2:	c9                   	leaveq 
    e3a3:	c3                   	retq   

000000000000e3a4 <_Z41__static_initialization_and_destruction_0ii>:
    e3a4:	55                   	push   %rbp
    e3a5:	48 89 e5             	mov    %rsp,%rbp
    e3a8:	48 83 ec 10          	sub    $0x10,%rsp
    e3ac:	89 7d fc             	mov    %edi,-0x4(%rbp)
    e3af:	89 75 f8             	mov    %esi,-0x8(%rbp)
    e3b2:	83 7d fc 01          	cmpl   $0x1,-0x4(%rbp)
    e3b6:	75 32                	jne    e3ea <_Z41__static_initialization_and_destruction_0ii+0x46>
    e3b8:	81 7d f8 ff ff 00 00 	cmpl   $0xffff,-0x8(%rbp)
    e3bf:	75 29                	jne    e3ea <_Z41__static_initialization_and_destruction_0ii+0x46>
    e3c1:	48 8d 3d b9 02 03 00 	lea    0x302b9(%rip),%rdi        # 3e681 <_ZStL8__ioinit>
    e3c8:	e8 03 f8 ff ff       	callq  dbd0 <_ZNSt8ios_base4InitC1Ev@plt>
    e3cd:	48 8d 15 7c 02 03 00 	lea    0x3027c(%rip),%rdx        # 3e650 <__dso_handle>
    e3d4:	48 8d 35 a6 02 03 00 	lea    0x302a6(%rip),%rsi        # 3e681 <_ZStL8__ioinit>
    e3db:	48 8b 05 0e fc 02 00 	mov    0x2fc0e(%rip),%rax        # 3dff0 <_ZNSt8ios_base4InitD1Ev@GLIBCXX_3.4>
    e3e2:	48 89 c7             	mov    %rax,%rdi
    e3e5:	e8 16 ee ff ff       	callq  d200 <__cxa_atexit@plt>
    e3ea:	90                   	nop
    e3eb:	c9                   	leaveq 
    e3ec:	c3                   	retq   

000000000000e3ed <_GLOBAL__sub_I_main.cpp>:
    e3ed:	55                   	push   %rbp
    e3ee:	48 89 e5             	mov    %rsp,%rbp
    e3f1:	be ff ff 00 00       	mov    $0xffff,%esi
    e3f6:	bf 01 00 00 00       	mov    $0x1,%edi
    e3fb:	e8 a4 ff ff ff       	callq  e3a4 <_Z41__static_initialization_and_destruction_0ii>
    e400:	5d                   	pop    %rbp
    e401:	c3                   	retq   

000000000000e402 <_ZNSt9exceptionC1Ev>:
    e402:	55                   	push   %rbp
    e403:	48 89 e5             	mov    %rsp,%rbp
    e406:	48 89 7d f8          	mov    %rdi,-0x8(%rbp)
    e40a:	48 8b 05 d7 fb 02 00 	mov    0x2fbd7(%rip),%rax        # 3dfe8 <_ZTVSt9exception@GLIBCXX_3.4>
    e411:	48 8d 50 10          	lea    0x10(%rax),%rdx
    e415:	48 8b 45 f8          	mov    -0x8(%rbp),%rax
    e419:	48 89 10             	mov    %rdx,(%rax)
    e41c:	90                   	nop
    e41d:	5d                   	pop    %rbp
    e41e:	c3                   	retq   
    e41f:	90                   	nop

000000000000e420 <_ZNSt8bad_castC1Ev>:
    e420:	55                   	push   %rbp
    e421:	48 89 e5             	mov    %rsp,%rbp
    e424:	48 83 ec 10          	sub    $0x10,%rsp
    e428:	48 89 7d f8          	mov    %rdi,-0x8(%rbp)
    e42c:	48 8b 45 f8          	mov    -0x8(%rbp),%rax
    e430:	48 89 c7             	mov    %rax,%rdi
    e433:	e8 ca ff ff ff       	callq  e402 <_ZNSt9exceptionC1Ev>
    e438:	48 8b 05 39 fb 02 00 	mov    0x2fb39(%rip),%rax        # 3df78 <_ZTVSt8bad_cast@GLIBCXX_3.4>
    e43f:	48 8d 50 10          	lea    0x10(%rax),%rdx
    e443:	48 8b 45 f8          	mov    -0x8(%rbp),%rax
    e447:	48 89 10             	mov    %rdx,(%rax)
    e44a:	90                   	nop
    e44b:	c9                   	leaveq 
    e44c:	c3                   	retq   

000000000000e44d <_ZnwmPv>:
    e44d:	55                   	push   %rbp
    e44e:	48 89 e5             	mov    %rsp,%rbp
    e451:	48 89 7d f8          	mov    %rdi,-0x8(%rbp)
    e455:	48 89 75 f0          	mov    %rsi,-0x10(%rbp)
    e459:	48 8b 45 f0          	mov    -0x10(%rbp),%rax
    e45d:	5d                   	pop    %rbp
    e45e:	c3                   	retq   

000000000000e45f <_ZL18__gthread_active_pv>:
    e45f:	55                   	push   %rbp
    e460:	48 89 e5             	mov    %rsp,%rbp
    e463:	ba 01 00 00 00       	mov    $0x1,%edx
    e468:	48 8b 05 49 fb 02 00 	mov    0x2fb49(%rip),%rax        # 3dfb8 <__pthread_key_create@GLIBC_2.2.5>
    e46f:	48 85 c0             	test   %rax,%rax
    e472:	75 05                	jne    e479 <_ZL18__gthread_active_pv+0x1a>
    e474:	ba 00 00 00 00       	mov    $0x0,%edx
    e479:	0f b6 c2             	movzbl %dl,%eax
    e47c:	5d                   	pop    %rbp
    e47d:	c3                   	retq   

000000000000e47e <_ZNSt10error_codeC1Ev>:
    e47e:	55                   	push   %rbp
    e47f:	48 89 e5             	mov    %rsp,%rbp
    e482:	48 83 ec 10          	sub    $0x10,%rsp
    e486:	48 89 7d f8          	mov    %rdi,-0x8(%rbp)
    e48a:	48 8b 45 f8          	mov    -0x8(%rbp),%rax
    e48e:	c7 00 00 00 00 00    	movl   $0x0,(%rax)
    e494:	e8 97 f3 ff ff       	callq  d830 <_ZNSt3_V215system_categoryEv@plt>
    e499:	48 8b 55 f8          	mov    -0x8(%rbp),%rdx
    e49d:	48 89 42 08          	mov    %rax,0x8(%rdx)
    e4a1:	90                   	nop
    e4a2:	c9                   	leaveq 
    e4a3:	c3                   	retq   

000000000000e4a4 <_ZN4llvm9StringRef6strLenEPKc>:
    e4a4:	55                   	push   %rbp
    e4a5:	48 89 e5             	mov    %rsp,%rbp
    e4a8:	48 83 ec 10          	sub    $0x10,%rsp
    e4ac:	48 89 7d f8          	mov    %rdi,-0x8(%rbp)
    e4b0:	48 8b 45 f8          	mov    -0x8(%rbp),%rax
    e4b4:	48 89 c7             	mov    %rax,%rdi
    e4b7:	e8 54 f2 ff ff       	callq  d710 <strlen@plt>
    e4bc:	c9                   	leaveq 
    e4bd:	c3                   	retq   

000000000000e4be <_ZN4llvm9StringRefC1EPKc>:
    e4be:	55                   	push   %rbp
    e4bf:	48 89 e5             	mov    %rsp,%rbp
    e4c2:	48 83 ec 10          	sub    $0x10,%rsp
    e4c6:	48 89 7d f8          	mov    %rdi,-0x8(%rbp)
    e4ca:	48 89 75 f0          	mov    %rsi,-0x10(%rbp)
    e4ce:	48 8b 45 f8          	mov    -0x8(%rbp),%rax
    e4d2:	48 8b 55 f0          	mov    -0x10(%rbp),%rdx
    e4d6:	48 89 10             	mov    %rdx,(%rax)
    e4d9:	48 83 7d f0 00       	cmpq   $0x0,-0x10(%rbp)
    e4de:	74 0e                	je     e4ee <_ZN4llvm9StringRefC1EPKc+0x30>
    e4e0:	48 8b 45 f0          	mov    -0x10(%rbp),%rax
    e4e4:	48 89 c7             	mov    %rax,%rdi
    e4e7:	e8 b8 ff ff ff       	callq  e4a4 <_ZN4llvm9StringRef6strLenEPKc>
    e4ec:	eb 05                	jmp    e4f3 <_ZN4llvm9StringRefC1EPKc+0x35>
    e4ee:	b8 00 00 00 00       	mov    $0x0,%eax
    e4f3:	48 8b 55 f8          	mov    -0x8(%rbp),%rdx
    e4f7:	48 89 42 08          	mov    %rax,0x8(%rdx)
    e4fb:	90                   	nop
    e4fc:	c9                   	leaveq 
    e4fd:	c3                   	retq   

000000000000e4fe <_ZN4llvm9StringRefC1ERKNSt7__cxx1112basic_stringIcSt11char_traitsIcESaIcEEE>:
    e4fe:	55                   	push   %rbp
    e4ff:	48 89 e5             	mov    %rsp,%rbp
    e502:	48 83 ec 10          	sub    $0x10,%rsp
    e506:	48 89 7d f8          	mov    %rdi,-0x8(%rbp)
    e50a:	48 89 75 f0          	mov    %rsi,-0x10(%rbp)
    e50e:	48 8b 45 f0          	mov    -0x10(%rbp),%rax
    e512:	48 89 c7             	mov    %rax,%rdi
    e515:	e8 96 eb ff ff       	callq  d0b0 <_ZNKSt7__cxx1112basic_stringIcSt11char_traitsIcESaIcEE4dataEv@plt>
    e51a:	48 8b 55 f8          	mov    -0x8(%rbp),%rdx
    e51e:	48 89 02             	mov    %rax,(%rdx)
    e521:	48 8b 45 f0          	mov    -0x10(%rbp),%rax
    e525:	48 89 c7             	mov    %rax,%rdi
    e528:	e8 33 ec ff ff       	callq  d160 <_ZNKSt7__cxx1112basic_stringIcSt11char_traitsIcESaIcEE6lengthEv@plt>
    e52d:	48 8b 55 f8          	mov    -0x8(%rbp),%rdx
    e531:	48 89 42 08          	mov    %rax,0x8(%rdx)
    e535:	90                   	nop
    e536:	c9                   	leaveq 
    e537:	c3                   	retq   

000000000000e538 <_ZN4llvm11raw_ostream5flushEv>:
    e538:	55                   	push   %rbp
    e539:	48 89 e5             	mov    %rsp,%rbp
    e53c:	48 83 ec 10          	sub    $0x10,%rsp
    e540:	48 89 7d f8          	mov    %rdi,-0x8(%rbp)
    e544:	48 8b 45 f8          	mov    -0x8(%rbp),%rax
    e548:	48 8b 50 18          	mov    0x18(%rax),%rdx
    e54c:	48 8b 45 f8          	mov    -0x8(%rbp),%rax
    e550:	48 8b 40 08          	mov    0x8(%rax),%rax
    e554:	48 39 c2             	cmp    %rax,%rdx
    e557:	74 0c                	je     e565 <_ZN4llvm11raw_ostream5flushEv+0x2d>
    e559:	48 8b 45 f8          	mov    -0x8(%rbp),%rax
    e55d:	48 89 c7             	mov    %rax,%rdi
    e560:	e8 bb eb ff ff       	callq  d120 <_ZN4llvm11raw_ostream14flush_nonemptyEv@plt>
    e565:	90                   	nop
    e566:	c9                   	leaveq 
    e567:	c3                   	retq   

000000000000e568 <_ZN4llvm11raw_ostreamlsERKNSt7__cxx1112basic_stringIcSt11char_traitsIcESaIcEEE>:
    e568:	55                   	push   %rbp
    e569:	48 89 e5             	mov    %rsp,%rbp
    e56c:	53                   	push   %rbx
    e56d:	48 83 ec 18          	sub    $0x18,%rsp
    e571:	48 89 7d e8          	mov    %rdi,-0x18(%rbp)
    e575:	48 89 75 e0          	mov    %rsi,-0x20(%rbp)
    e579:	48 8b 45 e0          	mov    -0x20(%rbp),%rax
    e57d:	48 89 c7             	mov    %rax,%rdi
    e580:	e8 db eb ff ff       	callq  d160 <_ZNKSt7__cxx1112basic_stringIcSt11char_traitsIcESaIcEE6lengthEv@plt>
    e585:	48 89 c3             	mov    %rax,%rbx
    e588:	48 8b 45 e0          	mov    -0x20(%rbp),%rax
    e58c:	48 89 c7             	mov    %rax,%rdi
    e58f:	e8 1c eb ff ff       	callq  d0b0 <_ZNKSt7__cxx1112basic_stringIcSt11char_traitsIcESaIcEE4dataEv@plt>
    e594:	48 89 c1             	mov    %rax,%rcx
    e597:	48 8b 45 e8          	mov    -0x18(%rbp),%rax
    e59b:	48 89 da             	mov    %rbx,%rdx
    e59e:	48 89 ce             	mov    %rcx,%rsi
    e5a1:	48 89 c7             	mov    %rax,%rdi
    e5a4:	e8 a7 f4 ff ff       	callq  da50 <_ZN4llvm11raw_ostream5writeEPKcm@plt>
    e5a9:	48 8b 5d f8          	mov    -0x8(%rbp),%rbx
    e5ad:	c9                   	leaveq 
    e5ae:	c3                   	retq   
    e5af:	90                   	nop

000000000000e5b0 <_ZN4llvm12DenormalModeC1ENS0_16DenormalModeKindES1_>:
    e5b0:	55                   	push   %rbp
    e5b1:	48 89 e5             	mov    %rsp,%rbp
    e5b4:	48 89 7d f8          	mov    %rdi,-0x8(%rbp)
    e5b8:	89 f1                	mov    %esi,%ecx
    e5ba:	89 d0                	mov    %edx,%eax
    e5bc:	89 ca                	mov    %ecx,%edx
    e5be:	88 55 f4             	mov    %dl,-0xc(%rbp)
    e5c1:	88 45 f0             	mov    %al,-0x10(%rbp)
    e5c4:	48 8b 45 f8          	mov    -0x8(%rbp),%rax
    e5c8:	0f b6 55 f4          	movzbl -0xc(%rbp),%edx
    e5cc:	88 10                	mov    %dl,(%rax)
    e5ce:	48 8b 45 f8          	mov    -0x8(%rbp),%rax
    e5d2:	0f b6 55 f0          	movzbl -0x10(%rbp),%edx
    e5d6:	88 50 01             	mov    %dl,0x1(%rax)
    e5d9:	90                   	nop
    e5da:	5d                   	pop    %rbp
    e5db:	c3                   	retq   

000000000000e5dc <_ZN4llvm12DenormalModeC1Ev>:
    e5dc:	55                   	push   %rbp
    e5dd:	48 89 e5             	mov    %rsp,%rbp
    e5e0:	48 89 7d f8          	mov    %rdi,-0x8(%rbp)
    e5e4:	48 8b 45 f8          	mov    -0x8(%rbp),%rax
    e5e8:	c6 00 ff             	movb   $0xff,(%rax)
    e5eb:	48 8b 45 f8          	mov    -0x8(%rbp),%rax
    e5ef:	c6 40 01 ff          	movb   $0xff,0x1(%rax)
    e5f3:	90                   	nop
    e5f4:	5d                   	pop    %rbp
    e5f5:	c3                   	retq   

000000000000e5f6 <_ZNK4llvm5Twine6isNullEv>:
    e5f6:	55                   	push   %rbp
    e5f7:	48 89 e5             	mov    %rsp,%rbp
    e5fa:	48 83 ec 10          	sub    $0x10,%rsp
    e5fe:	48 89 7d f8          	mov    %rdi,-0x8(%rbp)
    e602:	48 8b 45 f8          	mov    -0x8(%rbp),%rax
    e606:	48 89 c7             	mov    %rax,%rdi
    e609:	e8 be 01 00 00       	callq  e7cc <_ZNK4llvm5Twine10getLHSKindEv>
    e60e:	84 c0                	test   %al,%al
    e610:	0f 94 c0             	sete   %al
    e613:	c9                   	leaveq 
    e614:	c3                   	retq   
    e615:	90                   	nop

000000000000e616 <_ZNK4llvm5Twine7isEmptyEv>:
    e616:	55                   	push   %rbp
    e617:	48 89 e5             	mov    %rsp,%rbp
    e61a:	48 83 ec 10          	sub    $0x10,%rsp
    e61e:	48 89 7d f8          	mov    %rdi,-0x8(%rbp)
    e622:	48 8b 45 f8          	mov    -0x8(%rbp),%rax
    e626:	48 89 c7             	mov    %rax,%rdi
    e629:	e8 9e 01 00 00       	callq  e7cc <_ZNK4llvm5Twine10getLHSKindEv>
    e62e:	3c 01                	cmp    $0x1,%al
    e630:	0f 94 c0             	sete   %al
    e633:	c9                   	leaveq 
    e634:	c3                   	retq   
    e635:	90                   	nop

000000000000e636 <_ZNK4llvm5Twine9isNullaryEv>:
    e636:	55                   	push   %rbp
    e637:	48 89 e5             	mov    %rsp,%rbp
    e63a:	48 83 ec 10          	sub    $0x10,%rsp
    e63e:	48 89 7d f8          	mov    %rdi,-0x8(%rbp)
    e642:	48 8b 45 f8          	mov    -0x8(%rbp),%rax
    e646:	48 89 c7             	mov    %rax,%rdi
    e649:	e8 a8 ff ff ff       	callq  e5f6 <_ZNK4llvm5Twine6isNullEv>
    e64e:	84 c0                	test   %al,%al
    e650:	75 10                	jne    e662 <_ZNK4llvm5Twine9isNullaryEv+0x2c>
    e652:	48 8b 45 f8          	mov    -0x8(%rbp),%rax
    e656:	48 89 c7             	mov    %rax,%rdi
    e659:	e8 b8 ff ff ff       	callq  e616 <_ZNK4llvm5Twine7isEmptyEv>
    e65e:	84 c0                	test   %al,%al
    e660:	74 07                	je     e669 <_ZNK4llvm5Twine9isNullaryEv+0x33>
    e662:	b8 01 00 00 00       	mov    $0x1,%eax
    e667:	eb 05                	jmp    e66e <_ZNK4llvm5Twine9isNullaryEv+0x38>
    e669:	b8 00 00 00 00       	mov    $0x0,%eax
    e66e:	c9                   	leaveq 
    e66f:	c3                   	retq   

000000000000e670 <_ZNK4llvm5Twine8isBinaryEv>:
    e670:	55                   	push   %rbp
    e671:	48 89 e5             	mov    %rsp,%rbp
    e674:	48 83 ec 10          	sub    $0x10,%rsp
    e678:	48 89 7d f8          	mov    %rdi,-0x8(%rbp)
    e67c:	48 8b 45 f8          	mov    -0x8(%rbp),%rax
    e680:	48 89 c7             	mov    %rax,%rdi
    e683:	e8 44 01 00 00       	callq  e7cc <_ZNK4llvm5Twine10getLHSKindEv>
    e688:	84 c0                	test   %al,%al
    e68a:	74 17                	je     e6a3 <_ZNK4llvm5Twine8isBinaryEv+0x33>
    e68c:	48 8b 45 f8          	mov    -0x8(%rbp),%rax
    e690:	48 89 c7             	mov    %rax,%rdi
    e693:	e8 46 01 00 00       	callq  e7de <_ZNK4llvm5Twine10getRHSKindEv>
    e698:	3c 01                	cmp    $0x1,%al
    e69a:	74 07                	je     e6a3 <_ZNK4llvm5Twine8isBinaryEv+0x33>
    e69c:	b8 01 00 00 00       	mov    $0x1,%eax
    e6a1:	eb 05                	jmp    e6a8 <_ZNK4llvm5Twine8isBinaryEv+0x38>
    e6a3:	b8 00 00 00 00       	mov    $0x0,%eax
    e6a8:	c9                   	leaveq 
    e6a9:	c3                   	retq   

000000000000e6aa <_ZNK4llvm5Twine7isValidEv>:
    e6aa:	55                   	push   %rbp
    e6ab:	48 89 e5             	mov    %rsp,%rbp
    e6ae:	48 83 ec 10          	sub    $0x10,%rsp
    e6b2:	48 89 7d f8          	mov    %rdi,-0x8(%rbp)
    e6b6:	48 8b 45 f8          	mov    -0x8(%rbp),%rax
    e6ba:	48 89 c7             	mov    %rax,%rdi
    e6bd:	e8 74 ff ff ff       	callq  e636 <_ZNK4llvm5Twine9isNullaryEv>
    e6c2:	84 c0                	test   %al,%al
    e6c4:	74 17                	je     e6dd <_ZNK4llvm5Twine7isValidEv+0x33>
    e6c6:	48 8b 45 f8          	mov    -0x8(%rbp),%rax
    e6ca:	48 89 c7             	mov    %rax,%rdi
    e6cd:	e8 0c 01 00 00       	callq  e7de <_ZNK4llvm5Twine10getRHSKindEv>
    e6d2:	3c 01                	cmp    $0x1,%al
    e6d4:	74 07                	je     e6dd <_ZNK4llvm5Twine7isValidEv+0x33>
    e6d6:	b8 01 00 00 00       	mov    $0x1,%eax
    e6db:	eb 05                	jmp    e6e2 <_ZNK4llvm5Twine7isValidEv+0x38>
    e6dd:	b8 00 00 00 00       	mov    $0x0,%eax
    e6e2:	84 c0                	test   %al,%al
    e6e4:	74 0a                	je     e6f0 <_ZNK4llvm5Twine7isValidEv+0x46>
    e6e6:	b8 00 00 00 00       	mov    $0x0,%eax
    e6eb:	e9 d9 00 00 00       	jmpq   e7c9 <_ZNK4llvm5Twine7isValidEv+0x11f>
    e6f0:	48 8b 45 f8          	mov    -0x8(%rbp),%rax
    e6f4:	48 89 c7             	mov    %rax,%rdi
    e6f7:	e8 e2 00 00 00       	callq  e7de <_ZNK4llvm5Twine10getRHSKindEv>
    e6fc:	84 c0                	test   %al,%al
    e6fe:	0f 94 c0             	sete   %al
    e701:	84 c0                	test   %al,%al
    e703:	74 0a                	je     e70f <_ZNK4llvm5Twine7isValidEv+0x65>
    e705:	b8 00 00 00 00       	mov    $0x0,%eax
    e70a:	e9 ba 00 00 00       	jmpq   e7c9 <_ZNK4llvm5Twine7isValidEv+0x11f>
    e70f:	48 8b 45 f8          	mov    -0x8(%rbp),%rax
    e713:	48 89 c7             	mov    %rax,%rdi
    e716:	e8 c3 00 00 00       	callq  e7de <_ZNK4llvm5Twine10getRHSKindEv>
    e71b:	3c 01                	cmp    $0x1,%al
    e71d:	74 17                	je     e736 <_ZNK4llvm5Twine7isValidEv+0x8c>
    e71f:	48 8b 45 f8          	mov    -0x8(%rbp),%rax
    e723:	48 89 c7             	mov    %rax,%rdi
    e726:	e8 a1 00 00 00       	callq  e7cc <_ZNK4llvm5Twine10getLHSKindEv>
    e72b:	3c 01                	cmp    $0x1,%al
    e72d:	75 07                	jne    e736 <_ZNK4llvm5Twine7isValidEv+0x8c>
    e72f:	b8 01 00 00 00       	mov    $0x1,%eax
    e734:	eb 05                	jmp    e73b <_ZNK4llvm5Twine7isValidEv+0x91>
    e736:	b8 00 00 00 00       	mov    $0x0,%eax
    e73b:	84 c0                	test   %al,%al
    e73d:	74 0a                	je     e749 <_ZNK4llvm5Twine7isValidEv+0x9f>
    e73f:	b8 00 00 00 00       	mov    $0x0,%eax
    e744:	e9 80 00 00 00       	jmpq   e7c9 <_ZNK4llvm5Twine7isValidEv+0x11f>
    e749:	48 8b 45 f8          	mov    -0x8(%rbp),%rax
    e74d:	48 89 c7             	mov    %rax,%rdi
    e750:	e8 77 00 00 00       	callq  e7cc <_ZNK4llvm5Twine10getLHSKindEv>
    e755:	3c 02                	cmp    $0x2,%al
    e757:	75 1d                	jne    e776 <_ZNK4llvm5Twine7isValidEv+0xcc>
    e759:	48 8b 45 f8          	mov    -0x8(%rbp),%rax
    e75d:	48 8b 00             	mov    (%rax),%rax
    e760:	48 89 c7             	mov    %rax,%rdi
    e763:	e8 08 ff ff ff       	callq  e670 <_ZNK4llvm5Twine8isBinaryEv>
    e768:	83 f0 01             	xor    $0x1,%eax
    e76b:	84 c0                	test   %al,%al
    e76d:	74 07                	je     e776 <_ZNK4llvm5Twine7isValidEv+0xcc>
    e76f:	b8 01 00 00 00       	mov    $0x1,%eax
    e774:	eb 05                	jmp    e77b <_ZNK4llvm5Twine7isValidEv+0xd1>
    e776:	b8 00 00 00 00       	mov    $0x0,%eax
    e77b:	84 c0                	test   %al,%al
    e77d:	74 07                	je     e786 <_ZNK4llvm5Twine7isValidEv+0xdc>
    e77f:	b8 00 00 00 00       	mov    $0x0,%eax
    e784:	eb 43                	jmp    e7c9 <_ZNK4llvm5Twine7isValidEv+0x11f>
    e786:	48 8b 45 f8          	mov    -0x8(%rbp),%rax
    e78a:	48 89 c7             	mov    %rax,%rdi
    e78d:	e8 4c 00 00 00       	callq  e7de <_ZNK4llvm5Twine10getRHSKindEv>
    e792:	3c 02                	cmp    $0x2,%al
    e794:	75 1e                	jne    e7b4 <_ZNK4llvm5Twine7isValidEv+0x10a>
    e796:	48 8b 45 f8          	mov    -0x8(%rbp),%rax
    e79a:	48 8b 40 08          	mov    0x8(%rax),%rax
    e79e:	48 89 c7             	mov    %rax,%rdi
    e7a1:	e8 ca fe ff ff       	callq  e670 <_ZNK4llvm5Twine8isBinaryEv>
    e7a6:	83 f0 01             	xor    $0x1,%eax
    e7a9:	84 c0                	test   %al,%al
    e7ab:	74 07                	je     e7b4 <_ZNK4llvm5Twine7isValidEv+0x10a>
    e7ad:	b8 01 00 00 00       	mov    $0x1,%eax
    e7b2:	eb 05                	jmp    e7b9 <_ZNK4llvm5Twine7isValidEv+0x10f>
    e7b4:	b8 00 00 00 00       	mov    $0x0,%eax
    e7b9:	84 c0                	test   %al,%al
    e7bb:	74 07                	je     e7c4 <_ZNK4llvm5Twine7isValidEv+0x11a>
    e7bd:	b8 00 00 00 00       	mov    $0x0,%eax
    e7c2:	eb 05                	jmp    e7c9 <_ZNK4llvm5Twine7isValidEv+0x11f>
    e7c4:	b8 01 00 00 00       	mov    $0x1,%eax
    e7c9:	c9                   	leaveq 
    e7ca:	c3                   	retq   
    e7cb:	90                   	nop

000000000000e7cc <_ZNK4llvm5Twine10getLHSKindEv>:
    e7cc:	55                   	push   %rbp
    e7cd:	48 89 e5             	mov    %rsp,%rbp
    e7d0:	48 89 7d f8          	mov    %rdi,-0x8(%rbp)
    e7d4:	48 8b 45 f8          	mov    -0x8(%rbp),%rax
    e7d8:	0f b6 40 10          	movzbl 0x10(%rax),%eax
    e7dc:	5d                   	pop    %rbp
    e7dd:	c3                   	retq   

000000000000e7de <_ZNK4llvm5Twine10getRHSKindEv>:
    e7de:	55                   	push   %rbp
    e7df:	48 89 e5             	mov    %rsp,%rbp
    e7e2:	48 89 7d f8          	mov    %rdi,-0x8(%rbp)
    e7e6:	48 8b 45 f8          	mov    -0x8(%rbp),%rax
    e7ea:	0f b6 40 11          	movzbl 0x11(%rax),%eax
    e7ee:	5d                   	pop    %rbp
    e7ef:	c3                   	retq   

000000000000e7f0 <_ZN4llvm5TwineC1EPKc>:
    e7f0:	55                   	push   %rbp
    e7f1:	48 89 e5             	mov    %rsp,%rbp
    e7f4:	48 83 ec 10          	sub    $0x10,%rsp
    e7f8:	48 89 7d f8          	mov    %rdi,-0x8(%rbp)
    e7fc:	48 89 75 f0          	mov    %rsi,-0x10(%rbp)
    e800:	48 8b 45 f8          	mov    -0x8(%rbp),%rax
    e804:	c6 40 10 01          	movb   $0x1,0x10(%rax)
    e808:	48 8b 45 f8          	mov    -0x8(%rbp),%rax
    e80c:	c6 40 11 01          	movb   $0x1,0x11(%rax)
    e810:	48 8b 45 f0          	mov    -0x10(%rbp),%rax
    e814:	0f b6 00             	movzbl (%rax),%eax
    e817:	84 c0                	test   %al,%al
    e819:	74 15                	je     e830 <_ZN4llvm5TwineC1EPKc+0x40>
    e81b:	48 8b 45 f8          	mov    -0x8(%rbp),%rax
    e81f:	48 8b 55 f0          	mov    -0x10(%rbp),%rdx
    e823:	48 89 10             	mov    %rdx,(%rax)
    e826:	48 8b 45 f8          	mov    -0x8(%rbp),%rax
    e82a:	c6 40 10 03          	movb   $0x3,0x10(%rax)
    e82e:	eb 08                	jmp    e838 <_ZN4llvm5TwineC1EPKc+0x48>
    e830:	48 8b 45 f8          	mov    -0x8(%rbp),%rax
    e834:	c6 40 10 01          	movb   $0x1,0x10(%rax)
    e838:	48 8b 45 f8          	mov    -0x8(%rbp),%rax
    e83c:	48 89 c7             	mov    %rax,%rdi
    e83f:	e8 66 fe ff ff       	callq  e6aa <_ZNK4llvm5Twine7isValidEv>
    e844:	84 c0                	test   %al,%al
    e846:	75 1f                	jne    e867 <_ZN4llvm5TwineC1EPKc+0x77>
    e848:	48 8d 0d c9 b9 01 00 	lea    0x1b9c9(%rip),%rcx        # 2a218 <_ZStL6ignore+0x7>
    e84f:	ba 12 01 00 00       	mov    $0x112,%edx
    e854:	48 8d 35 dd b9 01 00 	lea    0x1b9dd(%rip),%rsi        # 2a238 <_ZStL6ignore+0x27>
    e85b:	48 8d 3d f4 b9 01 00 	lea    0x1b9f4(%rip),%rdi        # 2a256 <_ZStL6ignore+0x45>
    e862:	e8 09 e8 ff ff       	callq  d070 <__assert_fail@plt>
    e867:	90                   	nop
    e868:	90                   	nop
    e869:	c9                   	leaveq 
    e86a:	c3                   	retq   
    e86b:	90                   	nop

000000000000e86c <_ZN4llvm5TwineC1ERKNSt7__cxx1112basic_stringIcSt11char_traitsIcESaIcEEE>:
    e86c:	55                   	push   %rbp
    e86d:	48 89 e5             	mov    %rsp,%rbp
    e870:	48 83 ec 10          	sub    $0x10,%rsp
    e874:	48 89 7d f8          	mov    %rdi,-0x8(%rbp)
    e878:	48 89 75 f0          	mov    %rsi,-0x10(%rbp)
    e87c:	48 8b 45 f8          	mov    -0x8(%rbp),%rax
    e880:	c6 40 10 04          	movb   $0x4,0x10(%rax)
    e884:	48 8b 45 f8          	mov    -0x8(%rbp),%rax
    e888:	c6 40 11 01          	movb   $0x1,0x11(%rax)
    e88c:	48 8b 45 f8          	mov    -0x8(%rbp),%rax
    e890:	48 8b 55 f0          	mov    -0x10(%rbp),%rdx
    e894:	48 89 10             	mov    %rdx,(%rax)
    e897:	48 8b 45 f8          	mov    -0x8(%rbp),%rax
    e89b:	48 89 c7             	mov    %rax,%rdi
    e89e:	e8 07 fe ff ff       	callq  e6aa <_ZNK4llvm5Twine7isValidEv>
    e8a3:	84 c0                	test   %al,%al
    e8a5:	75 1f                	jne    e8c6 <_ZN4llvm5TwineC1ERKNSt7__cxx1112basic_stringIcSt11char_traitsIcESaIcEEE+0x5a>
    e8a7:	48 8d 0d ca b9 01 00 	lea    0x1b9ca(%rip),%rcx        # 2a278 <_ZStL6ignore+0x67>
    e8ae:	ba 1b 01 00 00       	mov    $0x11b,%edx
    e8b3:	48 8d 35 7e b9 01 00 	lea    0x1b97e(%rip),%rsi        # 2a238 <_ZStL6ignore+0x27>
    e8ba:	48 8d 3d 95 b9 01 00 	lea    0x1b995(%rip),%rdi        # 2a256 <_ZStL6ignore+0x45>
    e8c1:	e8 aa e7 ff ff       	callq  d070 <__assert_fail@plt>
    e8c6:	90                   	nop
    e8c7:	90                   	nop
    e8c8:	c9                   	leaveq 
    e8c9:	c3                   	retq   

000000000000e8ca <_ZN4llvm5TwineC1ERKNS_9StringRefE>:
    e8ca:	55                   	push   %rbp
    e8cb:	48 89 e5             	mov    %rsp,%rbp
    e8ce:	48 83 ec 10          	sub    $0x10,%rsp
    e8d2:	48 89 7d f8          	mov    %rdi,-0x8(%rbp)
    e8d6:	48 89 75 f0          	mov    %rsi,-0x10(%rbp)
    e8da:	48 8b 45 f8          	mov    -0x8(%rbp),%rax
    e8de:	c6 40 10 05          	movb   $0x5,0x10(%rax)
    e8e2:	48 8b 45 f8          	mov    -0x8(%rbp),%rax
    e8e6:	c6 40 11 01          	movb   $0x1,0x11(%rax)
    e8ea:	48 8b 45 f8          	mov    -0x8(%rbp),%rax
    e8ee:	48 8b 55 f0          	mov    -0x10(%rbp),%rdx
    e8f2:	48 89 10             	mov    %rdx,(%rax)
    e8f5:	48 8b 45 f8          	mov    -0x8(%rbp),%rax
    e8f9:	48 89 c7             	mov    %rax,%rdi
    e8fc:	e8 a9 fd ff ff       	callq  e6aa <_ZNK4llvm5Twine7isValidEv>
    e901:	84 c0                	test   %al,%al
    e903:	75 1f                	jne    e924 <_ZN4llvm5TwineC1ERKNS_9StringRefE+0x5a>
    e905:	48 8d 0d 94 b9 01 00 	lea    0x1b994(%rip),%rcx        # 2a2a0 <_ZStL6ignore+0x8f>
    e90c:	ba 21 01 00 00       	mov    $0x121,%edx
    e911:	48 8d 35 20 b9 01 00 	lea    0x1b920(%rip),%rsi        # 2a238 <_ZStL6ignore+0x27>
    e918:	48 8d 3d 37 b9 01 00 	lea    0x1b937(%rip),%rdi        # 2a256 <_ZStL6ignore+0x45>
    e91f:	e8 4c e7 ff ff       	callq  d070 <__assert_fail@plt>
    e924:	90                   	nop
    e925:	90                   	nop
    e926:	c9                   	leaveq 
    e927:	c3                   	retq   

000000000000e928 <_ZN4llvm10MaybeAlignC1Ev>:
    e928:	55                   	push   %rbp
    e929:	48 89 e5             	mov    %rsp,%rbp
    e92c:	48 83 ec 10          	sub    $0x10,%rsp
    e930:	48 89 7d f8          	mov    %rdi,-0x8(%rbp)
    e934:	48 8b 45 f8          	mov    -0x8(%rbp),%rax
    e938:	48 89 c7             	mov    %rax,%rdi
    e93b:	e8 4e 26 00 00       	callq  10f8e <_ZN4llvm8OptionalINS_5AlignEEC1Ev>
    e940:	90                   	nop
    e941:	c9                   	leaveq 
    e942:	c3                   	retq   

000000000000e943 <_ZN4llvm4UserdlEPvj>:
    e943:	55                   	push   %rbp
    e944:	48 89 e5             	mov    %rsp,%rbp
    e947:	48 83 ec 10          	sub    $0x10,%rsp
    e94b:	48 89 7d f8          	mov    %rdi,-0x8(%rbp)
    e94f:	89 75 f4             	mov    %esi,-0xc(%rbp)
    e952:	48 8b 45 f8          	mov    -0x8(%rbp),%rax
    e956:	48 89 c7             	mov    %rax,%rdi
    e959:	e8 52 e9 ff ff       	callq  d2b0 <_ZN4llvm4UserdlEPv@plt>
    e95e:	90                   	nop
    e95f:	c9                   	leaveq 
    e960:	c3                   	retq   
    e961:	90                   	nop

000000000000e962 <_ZN4llvm20pointer_union_detail19PointerUnionMembersINS_12PointerUnionIJPNS_15MetadataAsValueEPNS_8MetadataEEEENS_14PointerIntPairIPvLj1EiNS0_22PointerUnionUIntTraitsIJS4_S6_EEENS_18PointerIntPairInfoIS9_Lj1ESB_EEEELi0EJS4_S6_EECI1NS1_IS7_SE_Li1EJS6_EEEES6_>:
    e962:	55                   	push   %rbp
    e963:	48 89 e5             	mov    %rsp,%rbp
    e966:	48 83 ec 10          	sub    $0x10,%rsp
    e96a:	48 89 7d f8          	mov    %rdi,-0x8(%rbp)
    e96e:	48 89 75 f0          	mov    %rsi,-0x10(%rbp)
    e972:	48 8b 45 f8          	mov    -0x8(%rbp),%rax
    e976:	48 8b 55 f0          	mov    -0x10(%rbp),%rdx
    e97a:	48 89 d6             	mov    %rdx,%rsi
    e97d:	48 89 c7             	mov    %rax,%rdi
    e980:	e8 25 26 00 00       	callq  10faa <_ZN4llvm20pointer_union_detail19PointerUnionMembersINS_12PointerUnionIJPNS_15MetadataAsValueEPNS_8MetadataEEEENS_14PointerIntPairIPvLj1EiNS0_22PointerUnionUIntTraitsIJS4_S6_EEENS_18PointerIntPairInfoIS9_Lj1ESB_EEEELi1EJS6_EEC1ES6_>
    e985:	90                   	nop
    e986:	c9                   	leaveq 
    e987:	c3                   	retq   

000000000000e988 <_ZN4llvm12PointerUnionIJPNS_15MetadataAsValueEPNS_8MetadataEEECI1NS_20pointer_union_detail19PointerUnionMembersIS5_NS_14PointerIntPairIPvLj1EiNS6_22PointerUnionUIntTraitsIJS2_S4_EEENS_18PointerIntPairInfoIS9_Lj1ESB_EEEELi1EJS4_EEEES4_>:
    e988:	55                   	push   %rbp
    e989:	48 89 e5             	mov    %rsp,%rbp
    e98c:	48 83 ec 10          	sub    $0x10,%rsp
    e990:	48 89 7d f8          	mov    %rdi,-0x8(%rbp)
    e994:	48 89 75 f0          	mov    %rsi,-0x10(%rbp)
    e998:	48 8b 45 f8          	mov    -0x8(%rbp),%rax
    e99c:	48 8b 55 f0          	mov    -0x10(%rbp),%rdx
    e9a0:	48 89 d6             	mov    %rdx,%rsi
    e9a3:	48 89 c7             	mov    %rax,%rdi
    e9a6:	e8 b7 ff ff ff       	callq  e962 <_ZN4llvm20pointer_union_detail19PointerUnionMembersINS_12PointerUnionIJPNS_15MetadataAsValueEPNS_8MetadataEEEENS_14PointerIntPairIPvLj1EiNS0_22PointerUnionUIntTraitsIJS4_S6_EEENS_18PointerIntPairInfoIS9_Lj1ESB_EEEELi0EJS4_S6_EECI1NS1_IS7_SE_Li1EJS6_EEEES6_>
    e9ab:	90                   	nop
    e9ac:	c9                   	leaveq 
    e9ad:	c3                   	retq   

000000000000e9ae <_ZN4llvm16MetadataTracking5trackERPNS_8MetadataE>:
    e9ae:	55                   	push   %rbp
    e9af:	48 89 e5             	mov    %rsp,%rbp
    e9b2:	48 83 ec 20          	sub    $0x20,%rsp
    e9b6:	48 89 7d e8          	mov    %rdi,-0x18(%rbp)
    e9ba:	64 48 8b 04 25 28 00 	mov    %fs:0x28,%rax
    e9c1:	00 00 
    e9c3:	48 89 45 f8          	mov    %rax,-0x8(%rbp)
    e9c7:	31 c0                	xor    %eax,%eax
    e9c9:	48 8d 45 f0          	lea    -0x10(%rbp),%rax
    e9cd:	be 00 00 00 00       	mov    $0x0,%esi
    e9d2:	48 89 c7             	mov    %rax,%rdi
    e9d5:	e8 ae ff ff ff       	callq  e988 <_ZN4llvm12PointerUnionIJPNS_15MetadataAsValueEPNS_8MetadataEEECI1NS_20pointer_union_detail19PointerUnionMembersIS5_NS_14PointerIntPairIPvLj1EiNS6_22PointerUnionUIntTraitsIJS2_S4_EEENS_18PointerIntPairInfoIS9_Lj1ESB_EEEELi1EJS4_EEEES4_>
    e9da:	48 8b 45 e8          	mov    -0x18(%rbp),%rax
    e9de:	48 8b 08             	mov    (%rax),%rcx
    e9e1:	48 8b 55 f0          	mov    -0x10(%rbp),%rdx
    e9e5:	48 8b 45 e8          	mov    -0x18(%rbp),%rax
    e9e9:	48 89 ce             	mov    %rcx,%rsi
    e9ec:	48 89 c7             	mov    %rax,%rdi
    e9ef:	e8 bc ee ff ff       	callq  d8b0 <_ZN4llvm16MetadataTracking5trackEPvRNS_8MetadataENS_12PointerUnionIJPNS_15MetadataAsValueEPS2_EEE@plt>
    e9f4:	48 8b 4d f8          	mov    -0x8(%rbp),%rcx
    e9f8:	64 48 2b 0c 25 28 00 	sub    %fs:0x28,%rcx
    e9ff:	00 00 
    ea01:	74 05                	je     ea08 <_ZN4llvm16MetadataTracking5trackERPNS_8MetadataE+0x5a>
    ea03:	e8 b8 e6 ff ff       	callq  d0c0 <__stack_chk_fail@plt>
    ea08:	c9                   	leaveq 
    ea09:	c3                   	retq   

000000000000ea0a <_ZN4llvm16MetadataTracking7untrackERPNS_8MetadataE>:
    ea0a:	55                   	push   %rbp
    ea0b:	48 89 e5             	mov    %rsp,%rbp
    ea0e:	48 83 ec 10          	sub    $0x10,%rsp
    ea12:	48 89 7d f8          	mov    %rdi,-0x8(%rbp)
    ea16:	48 8b 45 f8          	mov    -0x8(%rbp),%rax
    ea1a:	48 8b 10             	mov    (%rax),%rdx
    ea1d:	48 8b 45 f8          	mov    -0x8(%rbp),%rax
    ea21:	48 89 d6             	mov    %rdx,%rsi
    ea24:	48 89 c7             	mov    %rax,%rdi
    ea27:	e8 a4 ea ff ff       	callq  d4d0 <_ZN4llvm16MetadataTracking7untrackEPvRNS_8MetadataE@plt>
    ea2c:	90                   	nop
    ea2d:	c9                   	leaveq 
    ea2e:	c3                   	retq   

000000000000ea2f <_ZN4llvm16MetadataTracking7retrackERPNS_8MetadataES3_>:
    ea2f:	55                   	push   %rbp
    ea30:	48 89 e5             	mov    %rsp,%rbp
    ea33:	48 83 ec 10          	sub    $0x10,%rsp
    ea37:	48 89 7d f8          	mov    %rdi,-0x8(%rbp)
    ea3b:	48 89 75 f0          	mov    %rsi,-0x10(%rbp)
    ea3f:	48 8b 45 f8          	mov    -0x8(%rbp),%rax
    ea43:	48 8b 08             	mov    (%rax),%rcx
    ea46:	48 8b 55 f0          	mov    -0x10(%rbp),%rdx
    ea4a:	48 8b 45 f8          	mov    -0x8(%rbp),%rax
    ea4e:	48 89 ce             	mov    %rcx,%rsi
    ea51:	48 89 c7             	mov    %rax,%rdi
    ea54:	e8 67 e7 ff ff       	callq  d1c0 <_ZN4llvm16MetadataTracking7retrackEPvRNS_8MetadataES1_@plt>
    ea59:	c9                   	leaveq 
    ea5a:	c3                   	retq   
    ea5b:	90                   	nop

000000000000ea5c <_ZN4llvm13TrackingMDRefC1ERKS0_>:
    ea5c:	55                   	push   %rbp
    ea5d:	48 89 e5             	mov    %rsp,%rbp
    ea60:	48 83 ec 10          	sub    $0x10,%rsp
    ea64:	48 89 7d f8          	mov    %rdi,-0x8(%rbp)
    ea68:	48 89 75 f0          	mov    %rsi,-0x10(%rbp)
    ea6c:	48 8b 45 f0          	mov    -0x10(%rbp),%rax
    ea70:	48 8b 10             	mov    (%rax),%rdx
    ea73:	48 8b 45 f8          	mov    -0x8(%rbp),%rax
    ea77:	48 89 10             	mov    %rdx,(%rax)
    ea7a:	48 8b 45 f8          	mov    -0x8(%rbp),%rax
    ea7e:	48 89 c7             	mov    %rax,%rdi
    ea81:	e8 86 00 00 00       	callq  eb0c <_ZN4llvm13TrackingMDRef5trackEv>
    ea86:	90                   	nop
    ea87:	c9                   	leaveq 
    ea88:	c3                   	retq   
    ea89:	90                   	nop

000000000000ea8a <_ZN4llvm13TrackingMDRefaSEOS0_>:
    ea8a:	55                   	push   %rbp
    ea8b:	48 89 e5             	mov    %rsp,%rbp
    ea8e:	48 83 ec 10          	sub    $0x10,%rsp
    ea92:	48 89 7d f8          	mov    %rdi,-0x8(%rbp)
    ea96:	48 89 75 f0          	mov    %rsi,-0x10(%rbp)
    ea9a:	48 8b 45 f0          	mov    -0x10(%rbp),%rax
    ea9e:	48 3b 45 f8          	cmp    -0x8(%rbp),%rax
    eaa2:	75 06                	jne    eaaa <_ZN4llvm13TrackingMDRefaSEOS0_+0x20>
    eaa4:	48 8b 45 f8          	mov    -0x8(%rbp),%rax
    eaa8:	eb 31                	jmp    eadb <_ZN4llvm13TrackingMDRefaSEOS0_+0x51>
    eaaa:	48 8b 45 f8          	mov    -0x8(%rbp),%rax
    eaae:	48 89 c7             	mov    %rax,%rdi
    eab1:	e8 7e 00 00 00       	callq  eb34 <_ZN4llvm13TrackingMDRef7untrackEv>
    eab6:	48 8b 45 f0          	mov    -0x10(%rbp),%rax
    eaba:	48 8b 10             	mov    (%rax),%rdx
    eabd:	48 8b 45 f8          	mov    -0x8(%rbp),%rax
    eac1:	48 89 10             	mov    %rdx,(%rax)
    eac4:	48 8b 55 f0          	mov    -0x10(%rbp),%rdx
    eac8:	48 8b 45 f8          	mov    -0x8(%rbp),%rax
    eacc:	48 89 d6             	mov    %rdx,%rsi
    eacf:	48 89 c7             	mov    %rax,%rdi
    ead2:	e8 85 00 00 00       	callq  eb5c <_ZN4llvm13TrackingMDRef7retrackERS0_>
    ead7:	48 8b 45 f8          	mov    -0x8(%rbp),%rax
    eadb:	c9                   	leaveq 
    eadc:	c3                   	retq   
    eadd:	90                   	nop

000000000000eade <_ZN4llvm13TrackingMDRefD1Ev>:
    eade:	55                   	push   %rbp
    eadf:	48 89 e5             	mov    %rsp,%rbp
    eae2:	48 83 ec 10          	sub    $0x10,%rsp
    eae6:	48 89 7d f8          	mov    %rdi,-0x8(%rbp)
    eaea:	48 8b 45 f8          	mov    -0x8(%rbp),%rax
    eaee:	48 89 c7             	mov    %rax,%rdi
    eaf1:	e8 3e 00 00 00       	callq  eb34 <_ZN4llvm13TrackingMDRef7untrackEv>
    eaf6:	90                   	nop
    eaf7:	c9                   	leaveq 
    eaf8:	c3                   	retq   
    eaf9:	90                   	nop

000000000000eafa <_ZNK4llvm13TrackingMDRef3getEv>:
    eafa:	55                   	push   %rbp
    eafb:	48 89 e5             	mov    %rsp,%rbp
    eafe:	48 89 7d f8          	mov    %rdi,-0x8(%rbp)
    eb02:	48 8b 45 f8          	mov    -0x8(%rbp),%rax
    eb06:	48 8b 00             	mov    (%rax),%rax
    eb09:	5d                   	pop    %rbp
    eb0a:	c3                   	retq   
    eb0b:	90                   	nop

000000000000eb0c <_ZN4llvm13TrackingMDRef5trackEv>:
    eb0c:	55                   	push   %rbp
    eb0d:	48 89 e5             	mov    %rsp,%rbp
    eb10:	48 83 ec 10          	sub    $0x10,%rsp
    eb14:	48 89 7d f8          	mov    %rdi,-0x8(%rbp)
    eb18:	48 8b 45 f8          	mov    -0x8(%rbp),%rax
    eb1c:	48 8b 00             	mov    (%rax),%rax
    eb1f:	48 85 c0             	test   %rax,%rax
    eb22:	74 0c                	je     eb30 <_ZN4llvm13TrackingMDRef5trackEv+0x24>
    eb24:	48 8b 45 f8          	mov    -0x8(%rbp),%rax
    eb28:	48 89 c7             	mov    %rax,%rdi
    eb2b:	e8 7e fe ff ff       	callq  e9ae <_ZN4llvm16MetadataTracking5trackERPNS_8MetadataE>
    eb30:	90                   	nop
    eb31:	c9                   	leaveq 
    eb32:	c3                   	retq   
    eb33:	90                   	nop

000000000000eb34 <_ZN4llvm13TrackingMDRef7untrackEv>:
    eb34:	55                   	push   %rbp
    eb35:	48 89 e5             	mov    %rsp,%rbp
    eb38:	48 83 ec 10          	sub    $0x10,%rsp
    eb3c:	48 89 7d f8          	mov    %rdi,-0x8(%rbp)
    eb40:	48 8b 45 f8          	mov    -0x8(%rbp),%rax
    eb44:	48 8b 00             	mov    (%rax),%rax
    eb47:	48 85 c0             	test   %rax,%rax
    eb4a:	74 0c                	je     eb58 <_ZN4llvm13TrackingMDRef7untrackEv+0x24>
    eb4c:	48 8b 45 f8          	mov    -0x8(%rbp),%rax
    eb50:	48 89 c7             	mov    %rax,%rdi
    eb53:	e8 b2 fe ff ff       	callq  ea0a <_ZN4llvm16MetadataTracking7untrackERPNS_8MetadataE>
    eb58:	90                   	nop
    eb59:	c9                   	leaveq 
    eb5a:	c3                   	retq   
    eb5b:	90                   	nop

000000000000eb5c <_ZN4llvm13TrackingMDRef7retrackERS0_>:
    eb5c:	55                   	push   %rbp
    eb5d:	48 89 e5             	mov    %rsp,%rbp
    eb60:	48 83 ec 10          	sub    $0x10,%rsp
    eb64:	48 89 7d f8          	mov    %rdi,-0x8(%rbp)
    eb68:	48 89 75 f0          	mov    %rsi,-0x10(%rbp)
    eb6c:	48 8b 45 f8          	mov    -0x8(%rbp),%rax
    eb70:	48 8b 10             	mov    (%rax),%rdx
    eb73:	48 8b 45 f0          	mov    -0x10(%rbp),%rax
    eb77:	48 8b 00             	mov    (%rax),%rax
    eb7a:	48 39 c2             	cmp    %rax,%rdx
    eb7d:	74 1f                	je     eb9e <_ZN4llvm13TrackingMDRef7retrackERS0_+0x42>
    eb7f:	48 8d 0d 4a b7 01 00 	lea    0x1b74a(%rip),%rcx        # 2a2d0 <_ZStL6ignore+0xbf>
    eb86:	ba 5e 00 00 00       	mov    $0x5e,%edx
    eb8b:	48 8d 35 76 b7 01 00 	lea    0x1b776(%rip),%rsi        # 2a308 <_ZStL6ignore+0xf7>
    eb92:	48 8d 3d 97 b7 01 00 	lea    0x1b797(%rip),%rdi        # 2a330 <_ZStL6ignore+0x11f>
    eb99:	e8 d2 e4 ff ff       	callq  d070 <__assert_fail@plt>
    eb9e:	48 8b 45 f0          	mov    -0x10(%rbp),%rax
    eba2:	48 8b 00             	mov    (%rax),%rax
    eba5:	48 85 c0             	test   %rax,%rax
    eba8:	74 1e                	je     ebc8 <_ZN4llvm13TrackingMDRef7retrackERS0_+0x6c>
    ebaa:	48 8b 55 f8          	mov    -0x8(%rbp),%rdx
    ebae:	48 8b 45 f0          	mov    -0x10(%rbp),%rax
    ebb2:	48 89 d6             	mov    %rdx,%rsi
    ebb5:	48 89 c7             	mov    %rax,%rdi
    ebb8:	e8 72 fe ff ff       	callq  ea2f <_ZN4llvm16MetadataTracking7retrackERPNS_8MetadataES3_>
    ebbd:	48 8b 45 f0          	mov    -0x10(%rbp),%rax
    ebc1:	48 c7 00 00 00 00 00 	movq   $0x0,(%rax)
    ebc8:	90                   	nop
    ebc9:	c9                   	leaveq 
    ebca:	c3                   	retq   
    ebcb:	90                   	nop

000000000000ebcc <_ZNK4llvm8DebugLoccvbEv>:
    ebcc:	55                   	push   %rbp
    ebcd:	48 89 e5             	mov    %rsp,%rbp
    ebd0:	48 83 ec 10          	sub    $0x10,%rsp
    ebd4:	48 89 7d f8          	mov    %rdi,-0x8(%rbp)
    ebd8:	48 8b 45 f8          	mov    -0x8(%rbp),%rax
    ebdc:	48 89 c7             	mov    %rax,%rdi
    ebdf:	e8 38 24 00 00       	callq  1101c <_ZNK4llvm18TypedTrackingMDRefINS_6MDNodeEEcvPS1_Ev>
    ebe4:	48 85 c0             	test   %rax,%rax
    ebe7:	0f 95 c0             	setne  %al
    ebea:	c9                   	leaveq 
    ebeb:	c3                   	retq   

000000000000ebec <_ZN4llvm8DebugLocaSEOS0_>:
    ebec:	55                   	push   %rbp
    ebed:	48 89 e5             	mov    %rsp,%rbp
    ebf0:	48 83 ec 10          	sub    $0x10,%rsp
    ebf4:	48 89 7d f8          	mov    %rdi,-0x8(%rbp)
    ebf8:	48 89 75 f0          	mov    %rsi,-0x10(%rbp)
    ebfc:	48 8b 55 f0          	mov    -0x10(%rbp),%rdx
    ec00:	48 8b 45 f8          	mov    -0x8(%rbp),%rax
    ec04:	48 89 d6             	mov    %rdx,%rsi
    ec07:	48 89 c7             	mov    %rax,%rdi
    ec0a:	e8 35 24 00 00       	callq  11044 <_ZN4llvm18TypedTrackingMDRefINS_6MDNodeEEaSEOS2_>
    ec0f:	48 8b 45 f8          	mov    -0x8(%rbp),%rax
    ec13:	c9                   	leaveq 
    ec14:	c3                   	retq   
    ec15:	90                   	nop

000000000000ec16 <_ZN4llvm11Instruction11setDebugLocENS_8DebugLocE>:
    ec16:	55                   	push   %rbp
    ec17:	48 89 e5             	mov    %rsp,%rbp
    ec1a:	48 83 ec 10          	sub    $0x10,%rsp
    ec1e:	48 89 7d f8          	mov    %rdi,-0x8(%rbp)
    ec22:	48 89 75 f0          	mov    %rsi,-0x10(%rbp)
    ec26:	48 8b 45 f0          	mov    -0x10(%rbp),%rax
    ec2a:	48 89 c7             	mov    %rax,%rdi
    ec2d:	e8 04 24 00 00       	callq  11036 <_ZSt4moveIRN4llvm8DebugLocEEONSt16remove_referenceIT_E4typeEOS4_>
    ec32:	48 89 c2             	mov    %rax,%rdx
    ec35:	48 8b 45 f8          	mov    -0x8(%rbp),%rax
    ec39:	48 83 c0 30          	add    $0x30,%rax
    ec3d:	48 89 d6             	mov    %rdx,%rsi
    ec40:	48 89 c7             	mov    %rax,%rdi
    ec43:	e8 a4 ff ff ff       	callq  ebec <_ZN4llvm8DebugLocaSEOS0_>
    ec48:	90                   	nop
    ec49:	c9                   	leaveq 
    ec4a:	c3                   	retq   

000000000000ec4b <_ZN4llvm10BasicBlock6CreateERNS_11LLVMContextERKNS_5TwineEPNS_8FunctionEPS0_>:
    ec4b:	55                   	push   %rbp
    ec4c:	48 89 e5             	mov    %rsp,%rbp
    ec4f:	41 54                	push   %r12
    ec51:	53                   	push   %rbx
    ec52:	48 83 ec 20          	sub    $0x20,%rsp
    ec56:	48 89 7d e8          	mov    %rdi,-0x18(%rbp)
    ec5a:	48 89 75 e0          	mov    %rsi,-0x20(%rbp)
    ec5e:	48 89 55 d8          	mov    %rdx,-0x28(%rbp)
    ec62:	48 89 4d d0          	mov    %rcx,-0x30(%rbp)
    ec66:	bf 40 00 00 00       	mov    $0x40,%edi
    ec6b:	e8 e0 ec ff ff       	callq  d950 <_Znwm@plt>
    ec70:	48 89 c3             	mov    %rax,%rbx
    ec73:	48 8b 75 d0          	mov    -0x30(%rbp),%rsi
    ec77:	48 8b 4d d8          	mov    -0x28(%rbp),%rcx
    ec7b:	48 8b 55 e0          	mov    -0x20(%rbp),%rdx
    ec7f:	48 8b 45 e8          	mov    -0x18(%rbp),%rax
    ec83:	49 89 f0             	mov    %rsi,%r8
    ec86:	48 89 c6             	mov    %rax,%rsi
    ec89:	48 89 df             	mov    %rbx,%rdi
    ec8c:	e8 2f e7 ff ff       	callq  d3c0 <_ZN4llvm10BasicBlockC1ERNS_11LLVMContextERKNS_5TwineEPNS_8FunctionEPS0_@plt>
    ec91:	48 89 d8             	mov    %rbx,%rax
    ec94:	eb 1b                	jmp    ecb1 <_ZN4llvm10BasicBlock6CreateERNS_11LLVMContextERKNS_5TwineEPNS_8FunctionEPS0_+0x66>
    ec96:	49 89 c4             	mov    %rax,%r12
    ec99:	be 40 00 00 00       	mov    $0x40,%esi
    ec9e:	48 89 df             	mov    %rbx,%rdi
    eca1:	e8 7a e9 ff ff       	callq  d620 <_ZdlPvm@plt>
    eca6:	4c 89 e0             	mov    %r12,%rax
    eca9:	48 89 c7             	mov    %rax,%rdi
    ecac:	e8 cf ea ff ff       	callq  d780 <_Unwind_Resume@plt>
    ecb1:	48 83 c4 20          	add    $0x20,%rsp
    ecb5:	5b                   	pop    %rbx
    ecb6:	41 5c                	pop    %r12
    ecb8:	5d                   	pop    %rbp
    ecb9:	c3                   	retq   

000000000000ecba <_ZN4llvm10BasicBlock3endEv>:
    ecba:	55                   	push   %rbp
    ecbb:	48 89 e5             	mov    %rsp,%rbp
    ecbe:	48 83 ec 10          	sub    $0x10,%rsp
    ecc2:	48 89 7d f8          	mov    %rdi,-0x8(%rbp)
    ecc6:	48 8b 45 f8          	mov    -0x8(%rbp),%rax
    ecca:	48 83 c0 28          	add    $0x28,%rax
    ecce:	48 89 c7             	mov    %rax,%rdi
    ecd1:	e8 a2 23 00 00       	callq  11078 <_ZN4llvm12simple_ilistINS_11InstructionEJEE3endEv>
    ecd6:	c9                   	leaveq 
    ecd7:	c3                   	retq   

000000000000ecd8 <_ZN4llvm10ReturnInst6CreateERNS_11LLVMContextEPNS_5ValueEPNS_11InstructionE>:
    ecd8:	55                   	push   %rbp
    ecd9:	48 89 e5             	mov    %rsp,%rbp
    ecdc:	41 54                	push   %r12
    ecde:	53                   	push   %rbx
    ecdf:	48 83 ec 20          	sub    $0x20,%rsp
    ece3:	48 89 7d e8          	mov    %rdi,-0x18(%rbp)
    ece7:	48 89 75 e0          	mov    %rsi,-0x20(%rbp)
    eceb:	48 89 55 d8          	mov    %rdx,-0x28(%rbp)
    ecef:	48 83 7d e0 00       	cmpq   $0x0,-0x20(%rbp)
    ecf4:	0f 95 c0             	setne  %al
    ecf7:	0f b6 c0             	movzbl %al,%eax
    ecfa:	89 c6                	mov    %eax,%esi
    ecfc:	bf 40 00 00 00       	mov    $0x40,%edi
    ed01:	e8 da ee ff ff       	callq  dbe0 <_ZN4llvm4UsernwEmj@plt>
    ed06:	48 89 c3             	mov    %rax,%rbx
    ed09:	48 8b 4d d8          	mov    -0x28(%rbp),%rcx
    ed0d:	48 8b 55 e0          	mov    -0x20(%rbp),%rdx
    ed11:	48 8b 45 e8          	mov    -0x18(%rbp),%rax
    ed15:	48 89 c6             	mov    %rax,%rsi
    ed18:	48 89 df             	mov    %rbx,%rdi
    ed1b:	e8 f0 e8 ff ff       	callq  d610 <_ZN4llvm10ReturnInstC1ERNS_11LLVMContextEPNS_5ValueEPNS_11InstructionE@plt>
    ed20:	48 89 d8             	mov    %rbx,%rax
    ed23:	eb 23                	jmp    ed48 <_ZN4llvm10ReturnInst6CreateERNS_11LLVMContextEPNS_5ValueEPNS_11InstructionE+0x70>
    ed25:	49 89 c4             	mov    %rax,%r12
    ed28:	48 83 7d e0 00       	cmpq   $0x0,-0x20(%rbp)
    ed2d:	0f 95 c0             	setne  %al
    ed30:	0f b6 c0             	movzbl %al,%eax
    ed33:	89 c6                	mov    %eax,%esi
    ed35:	48 89 df             	mov    %rbx,%rdi
    ed38:	e8 06 fc ff ff       	callq  e943 <_ZN4llvm4UserdlEPvj>
    ed3d:	4c 89 e0             	mov    %r12,%rax
    ed40:	48 89 c7             	mov    %rax,%rdi
    ed43:	e8 38 ea ff ff       	callq  d780 <_Unwind_Resume@plt>
    ed48:	48 83 c4 20          	add    $0x20,%rsp
    ed4c:	5b                   	pop    %rbx
    ed4d:	41 5c                	pop    %r12
    ed4f:	5d                   	pop    %rbp
    ed50:	c3                   	retq   
    ed51:	90                   	nop

000000000000ed52 <_ZN4llvm10DataLayoutC1ERKS0_>:
    ed52:	55                   	push   %rbp
    ed53:	48 89 e5             	mov    %rsp,%rbp
    ed56:	53                   	push   %rbx
    ed57:	48 83 ec 18          	sub    $0x18,%rsp
    ed5b:	48 89 7d e8          	mov    %rdi,-0x18(%rbp)
    ed5f:	48 89 75 e0          	mov    %rsi,-0x20(%rbp)
    ed63:	48 8b 45 e8          	mov    -0x18(%rbp),%rax
    ed67:	48 83 c0 08          	add    $0x8,%rax
    ed6b:	48 89 c7             	mov    %rax,%rdi
    ed6e:	e8 b5 fb ff ff       	callq  e928 <_ZN4llvm10MaybeAlignC1Ev>
    ed73:	48 8b 45 e8          	mov    -0x18(%rbp),%rax
    ed77:	48 83 c0 10          	add    $0x10,%rax
    ed7b:	48 89 c7             	mov    %rax,%rdi
    ed7e:	e8 a5 fb ff ff       	callq  e928 <_ZN4llvm10MaybeAlignC1Ev>
    ed83:	48 8b 45 e8          	mov    -0x18(%rbp),%rax
    ed87:	48 83 c0 20          	add    $0x20,%rax
    ed8b:	48 89 c7             	mov    %rax,%rdi
    ed8e:	e8 af 23 00 00       	callq  11142 <_ZN4llvm11SmallVectorIhLj8EEC1Ev>
    ed93:	48 8b 45 e8          	mov    -0x18(%rbp),%rax
    ed97:	48 83 c0 40          	add    $0x40,%rax
    ed9b:	48 89 c7             	mov    %rax,%rdi
    ed9e:	e8 05 24 00 00       	callq  111a8 <_ZN4llvm11SmallVectorINS_15LayoutAlignElemELj16EEC1Ev>
    eda3:	48 8b 45 e8          	mov    -0x18(%rbp),%rax
    eda7:	48 05 d0 00 00 00    	add    $0xd0,%rax
    edad:	48 89 c7             	mov    %rax,%rdi
    edb0:	e8 2b ec ff ff       	callq  d9e0 <_ZNSt7__cxx1112basic_stringIcSt11char_traitsIcESaIcEEC1Ev@plt>
    edb5:	48 8b 45 e8          	mov    -0x18(%rbp),%rax
    edb9:	48 05 f0 00 00 00    	add    $0xf0,%rax
    edbf:	48 89 c7             	mov    %rax,%rdi
    edc2:	e8 47 24 00 00       	callq  1120e <_ZN4llvm11SmallVectorINS_16PointerAlignElemELj8EEC1Ev>
    edc7:	48 8b 45 e8          	mov    -0x18(%rbp),%rax
    edcb:	48 c7 80 80 01 00 00 	movq   $0x0,0x180(%rax)
    edd2:	00 00 00 00 
    edd6:	48 8b 45 e8          	mov    -0x18(%rbp),%rax
    edda:	48 05 88 01 00 00    	add    $0x188,%rax
    ede0:	48 89 c7             	mov    %rax,%rdi
    ede3:	e8 8c 24 00 00       	callq  11274 <_ZN4llvm11SmallVectorIjLj8EEC1Ev>
    ede8:	48 8b 55 e0          	mov    -0x20(%rbp),%rdx
    edec:	48 8b 45 e8          	mov    -0x18(%rbp),%rax
    edf0:	48 89 d6             	mov    %rdx,%rsi
    edf3:	48 89 c7             	mov    %rax,%rdi
    edf6:	e8 7b 00 00 00       	callq  ee76 <_ZN4llvm10DataLayoutaSERKS0_>
    edfb:	eb 73                	jmp    ee70 <_ZN4llvm10DataLayoutC1ERKS0_+0x11e>
    edfd:	48 89 c3             	mov    %rax,%rbx
    ee00:	48 8b 45 e8          	mov    -0x18(%rbp),%rax
    ee04:	48 05 88 01 00 00    	add    $0x188,%rax
    ee0a:	48 89 c7             	mov    %rax,%rdi
    ee0d:	e8 82 24 00 00       	callq  11294 <_ZN4llvm11SmallVectorIjLj8EED1Ev>
    ee12:	eb 03                	jmp    ee17 <_ZN4llvm10DataLayoutC1ERKS0_+0xc5>
    ee14:	48 89 c3             	mov    %rax,%rbx
    ee17:	48 8b 45 e8          	mov    -0x18(%rbp),%rax
    ee1b:	48 05 f0 00 00 00    	add    $0xf0,%rax
    ee21:	48 89 c7             	mov    %rax,%rdi
    ee24:	e8 05 24 00 00       	callq  1122e <_ZN4llvm11SmallVectorINS_16PointerAlignElemELj8EED1Ev>
    ee29:	eb 03                	jmp    ee2e <_ZN4llvm10DataLayoutC1ERKS0_+0xdc>
    ee2b:	48 89 c3             	mov    %rax,%rbx
    ee2e:	48 8b 45 e8          	mov    -0x18(%rbp),%rax
    ee32:	48 05 d0 00 00 00    	add    $0xd0,%rax
    ee38:	48 89 c7             	mov    %rax,%rdi
    ee3b:	e8 30 e6 ff ff       	callq  d470 <_ZNSt7__cxx1112basic_stringIcSt11char_traitsIcESaIcEED1Ev@plt>
    ee40:	48 8b 45 e8          	mov    -0x18(%rbp),%rax
    ee44:	48 83 c0 40          	add    $0x40,%rax
    ee48:	48 89 c7             	mov    %rax,%rdi
    ee4b:	e8 78 23 00 00       	callq  111c8 <_ZN4llvm11SmallVectorINS_15LayoutAlignElemELj16EED1Ev>
    ee50:	eb 03                	jmp    ee55 <_ZN4llvm10DataLayoutC1ERKS0_+0x103>
    ee52:	48 89 c3             	mov    %rax,%rbx
    ee55:	48 8b 45 e8          	mov    -0x18(%rbp),%rax
    ee59:	48 83 c0 20          	add    $0x20,%rax
    ee5d:	48 89 c7             	mov    %rax,%rdi
    ee60:	e8 fd 22 00 00       	callq  11162 <_ZN4llvm11SmallVectorIhLj8EED1Ev>
    ee65:	48 89 d8             	mov    %rbx,%rax
    ee68:	48 89 c7             	mov    %rax,%rdi
    ee6b:	e8 10 e9 ff ff       	callq  d780 <_Unwind_Resume@plt>
    ee70:	48 8b 5d f8          	mov    -0x8(%rbp),%rbx
    ee74:	c9                   	leaveq 
    ee75:	c3                   	retq   

000000000000ee76 <_ZN4llvm10DataLayoutaSERKS0_>:
    ee76:	55                   	push   %rbp
    ee77:	48 89 e5             	mov    %rsp,%rbp
    ee7a:	48 83 ec 10          	sub    $0x10,%rsp
    ee7e:	48 89 7d f8          	mov    %rdi,-0x8(%rbp)
    ee82:	48 89 75 f0          	mov    %rsi,-0x10(%rbp)
    ee86:	48 8b 45 f8          	mov    -0x8(%rbp),%rax
    ee8a:	48 89 c7             	mov    %rax,%rdi
    ee8d:	e8 fe e2 ff ff       	callq  d190 <_ZN4llvm10DataLayout5clearEv@plt>
    ee92:	48 8b 45 f0          	mov    -0x10(%rbp),%rax
    ee96:	48 8d 90 d0 00 00 00 	lea    0xd0(%rax),%rdx
    ee9d:	48 8b 45 f8          	mov    -0x8(%rbp),%rax
    eea1:	48 05 d0 00 00 00    	add    $0xd0,%rax
    eea7:	48 89 d6             	mov    %rdx,%rsi
    eeaa:	48 89 c7             	mov    %rax,%rdi
    eead:	e8 8e ed ff ff       	callq  dc40 <_ZNSt7__cxx1112basic_stringIcSt11char_traitsIcESaIcEEaSERKS4_@plt>
    eeb2:	48 8b 45 f0          	mov    -0x10(%rbp),%rax
    eeb6:	48 89 c7             	mov    %rax,%rdi
    eeb9:	e8 da 00 00 00       	callq  ef98 <_ZNK4llvm10DataLayout11isBigEndianEv>
    eebe:	48 8b 55 f8          	mov    -0x8(%rbp),%rdx
    eec2:	88 02                	mov    %al,(%rdx)
    eec4:	48 8b 45 f0          	mov    -0x10(%rbp),%rax
    eec8:	8b 50 04             	mov    0x4(%rax),%edx
    eecb:	48 8b 45 f8          	mov    -0x8(%rbp),%rax
    eecf:	89 50 04             	mov    %edx,0x4(%rax)
    eed2:	48 8b 45 f8          	mov    -0x8(%rbp),%rax
    eed6:	48 8b 55 f0          	mov    -0x10(%rbp),%rdx
    eeda:	0f b7 52 08          	movzwl 0x8(%rdx),%edx
    eede:	66 89 50 08          	mov    %dx,0x8(%rax)
    eee2:	48 8b 45 f8          	mov    -0x8(%rbp),%rax
    eee6:	48 8b 55 f0          	mov    -0x10(%rbp),%rdx
    eeea:	0f b7 52 10          	movzwl 0x10(%rdx),%edx
    eeee:	66 89 50 10          	mov    %dx,0x10(%rax)
    eef2:	48 8b 45 f0          	mov    -0x10(%rbp),%rax
    eef6:	8b 50 14             	mov    0x14(%rax),%edx
    eef9:	48 8b 45 f8          	mov    -0x8(%rbp),%rax
    eefd:	89 50 14             	mov    %edx,0x14(%rax)
    ef00:	48 8b 45 f0          	mov    -0x10(%rbp),%rax
    ef04:	8b 50 0c             	mov    0xc(%rax),%edx
    ef07:	48 8b 45 f8          	mov    -0x8(%rbp),%rax
    ef0b:	89 50 0c             	mov    %edx,0xc(%rax)
    ef0e:	48 8b 45 f0          	mov    -0x10(%rbp),%rax
    ef12:	8b 50 18             	mov    0x18(%rax),%edx
    ef15:	48 8b 45 f8          	mov    -0x8(%rbp),%rax
    ef19:	89 50 18             	mov    %edx,0x18(%rax)
    ef1c:	48 8b 45 f0          	mov    -0x10(%rbp),%rax
    ef20:	48 8d 50 20          	lea    0x20(%rax),%rdx
    ef24:	48 8b 45 f8          	mov    -0x8(%rbp),%rax
    ef28:	48 83 c0 20          	add    $0x20,%rax
    ef2c:	48 89 d6             	mov    %rdx,%rsi
    ef2f:	48 89 c7             	mov    %rax,%rdi
    ef32:	e8 a3 23 00 00       	callq  112da <_ZN4llvm11SmallVectorIhLj8EEaSERKS1_>
    ef37:	48 8b 45 f0          	mov    -0x10(%rbp),%rax
    ef3b:	48 8d 50 40          	lea    0x40(%rax),%rdx
    ef3f:	48 8b 45 f8          	mov    -0x8(%rbp),%rax
    ef43:	48 83 c0 40          	add    $0x40,%rax
    ef47:	48 89 d6             	mov    %rdx,%rsi
    ef4a:	48 89 c7             	mov    %rax,%rdi
    ef4d:	e8 b2 23 00 00       	callq  11304 <_ZN4llvm11SmallVectorINS_15LayoutAlignElemELj16EEaSERKS2_>
    ef52:	48 8b 45 f0          	mov    -0x10(%rbp),%rax
    ef56:	48 8d 90 f0 00 00 00 	lea    0xf0(%rax),%rdx
    ef5d:	48 8b 45 f8          	mov    -0x8(%rbp),%rax
    ef61:	48 05 f0 00 00 00    	add    $0xf0,%rax
    ef67:	48 89 d6             	mov    %rdx,%rsi
    ef6a:	48 89 c7             	mov    %rax,%rdi
    ef6d:	e8 bc 23 00 00       	callq  1132e <_ZN4llvm11SmallVectorINS_16PointerAlignElemELj8EEaSERKS2_>
    ef72:	48 8b 45 f0          	mov    -0x10(%rbp),%rax
    ef76:	48 8d 90 88 01 00 00 	lea    0x188(%rax),%rdx
    ef7d:	48 8b 45 f8          	mov    -0x8(%rbp),%rax
    ef81:	48 05 88 01 00 00    	add    $0x188,%rax
    ef87:	48 89 d6             	mov    %rdx,%rsi
    ef8a:	48 89 c7             	mov    %rax,%rdi
    ef8d:	e8 c6 23 00 00       	callq  11358 <_ZN4llvm11SmallVectorIjLj8EEaSERKS1_>
    ef92:	48 8b 45 f8          	mov    -0x8(%rbp),%rax
    ef96:	c9                   	leaveq 
    ef97:	c3                   	retq   

000000000000ef98 <_ZNK4llvm10DataLayout11isBigEndianEv>:
    ef98:	55                   	push   %rbp
    ef99:	48 89 e5             	mov    %rsp,%rbp
    ef9c:	48 89 7d f8          	mov    %rdi,-0x8(%rbp)
    efa0:	48 8b 45 f8          	mov    -0x8(%rbp),%rax
    efa4:	0f b6 00             	movzbl (%rax),%eax
    efa7:	5d                   	pop    %rbp
    efa8:	c3                   	retq   
    efa9:	90                   	nop

000000000000efaa <_ZN4llvm13FastMathFlagsC1Ev>:
    efaa:	55                   	push   %rbp
    efab:	48 89 e5             	mov    %rsp,%rbp
    efae:	48 89 7d f8          	mov    %rdi,-0x8(%rbp)
    efb2:	48 8b 45 f8          	mov    -0x8(%rbp),%rax
    efb6:	c7 00 00 00 00 00    	movl   $0x0,(%rax)
    efbc:	90                   	nop
    efbd:	5d                   	pop    %rbp
    efbe:	c3                   	retq   
    efbf:	90                   	nop

000000000000efc0 <_ZN4llvm24IRBuilderDefaultInserterC1Ev>:
    efc0:	55                   	push   %rbp
    efc1:	48 89 e5             	mov    %rsp,%rbp
    efc4:	48 89 7d f8          	mov    %rdi,-0x8(%rbp)
    efc8:	48 8b 05 49 ef 02 00 	mov    0x2ef49(%rip),%rax        # 3df18 <_ZTVN4llvm24IRBuilderDefaultInserterE@LLVM_11>
    efcf:	48 8d 50 10          	lea    0x10(%rax),%rdx
    efd3:	48 8b 45 f8          	mov    -0x8(%rbp),%rax
    efd7:	48 89 10             	mov    %rdx,(%rax)
    efda:	90                   	nop
    efdb:	5d                   	pop    %rbp
    efdc:	c3                   	retq   
    efdd:	90                   	nop

000000000000efde <_ZN4llvm13TrackingMDRefC1Ev>:
    efde:	55                   	push   %rbp
    efdf:	48 89 e5             	mov    %rsp,%rbp
    efe2:	48 89 7d f8          	mov    %rdi,-0x8(%rbp)
    efe6:	48 8b 45 f8          	mov    -0x8(%rbp),%rax
    efea:	48 c7 00 00 00 00 00 	movq   $0x0,(%rax)
    eff1:	90                   	nop
    eff2:	5d                   	pop    %rbp
    eff3:	c3                   	retq   

000000000000eff4 <_ZN4llvm18TypedTrackingMDRefINS_6MDNodeEEC1Ev>:
    eff4:	55                   	push   %rbp
    eff5:	48 89 e5             	mov    %rsp,%rbp
    eff8:	48 83 ec 10          	sub    $0x10,%rsp
    effc:	48 89 7d f8          	mov    %rdi,-0x8(%rbp)
    f000:	48 8b 45 f8          	mov    -0x8(%rbp),%rax
    f004:	48 89 c7             	mov    %rax,%rdi
    f007:	e8 d2 ff ff ff       	callq  efde <_ZN4llvm13TrackingMDRefC1Ev>
    f00c:	90                   	nop
    f00d:	c9                   	leaveq 
    f00e:	c3                   	retq   
    f00f:	90                   	nop

000000000000f010 <_ZN4llvm18TypedTrackingMDRefINS_6MDNodeEED1Ev>:
    f010:	55                   	push   %rbp
    f011:	48 89 e5             	mov    %rsp,%rbp
    f014:	48 83 ec 10          	sub    $0x10,%rsp
    f018:	48 89 7d f8          	mov    %rdi,-0x8(%rbp)
    f01c:	48 8b 45 f8          	mov    -0x8(%rbp),%rax
    f020:	48 89 c7             	mov    %rax,%rdi
    f023:	e8 b6 fa ff ff       	callq  eade <_ZN4llvm13TrackingMDRefD1Ev>
    f028:	90                   	nop
    f029:	c9                   	leaveq 
    f02a:	c3                   	retq   
    f02b:	90                   	nop

000000000000f02c <_ZN4llvm8DebugLocC1Ev>:
    f02c:	55                   	push   %rbp
    f02d:	48 89 e5             	mov    %rsp,%rbp
    f030:	48 83 ec 10          	sub    $0x10,%rsp
    f034:	48 89 7d f8          	mov    %rdi,-0x8(%rbp)
    f038:	48 8b 45 f8          	mov    -0x8(%rbp),%rax
    f03c:	48 89 c7             	mov    %rax,%rdi
    f03f:	e8 b0 ff ff ff       	callq  eff4 <_ZN4llvm18TypedTrackingMDRefINS_6MDNodeEEC1Ev>
    f044:	90                   	nop
    f045:	c9                   	leaveq 
    f046:	c3                   	retq   
    f047:	90                   	nop

000000000000f048 <_ZN4llvm8DebugLocD1Ev>:
    f048:	55                   	push   %rbp
    f049:	48 89 e5             	mov    %rsp,%rbp
    f04c:	48 83 ec 10          	sub    $0x10,%rsp
    f050:	48 89 7d f8          	mov    %rdi,-0x8(%rbp)
    f054:	48 8b 45 f8          	mov    -0x8(%rbp),%rax
    f058:	48 89 c7             	mov    %rax,%rdi
    f05b:	e8 b0 ff ff ff       	callq  f010 <_ZN4llvm18TypedTrackingMDRefINS_6MDNodeEED1Ev>
    f060:	90                   	nop
    f061:	c9                   	leaveq 
    f062:	c3                   	retq   
    f063:	90                   	nop

000000000000f064 <_ZN4llvm14ilist_iteratorINS_12ilist_detail12node_optionsINS_11InstructionELb0ELb0EvEELb0ELb0EEC1Ev>:
    f064:	55                   	push   %rbp
    f065:	48 89 e5             	mov    %rsp,%rbp
    f068:	48 89 7d f8          	mov    %rdi,-0x8(%rbp)
    f06c:	48 8b 45 f8          	mov    -0x8(%rbp),%rax
    f070:	48 c7 00 00 00 00 00 	movq   $0x0,(%rax)
    f077:	90                   	nop
    f078:	5d                   	pop    %rbp
    f079:	c3                   	retq   

000000000000f07a <_ZN4llvm13IRBuilderBaseC1ERNS_11LLVMContextERKNS_15IRBuilderFolderERKNS_24IRBuilderDefaultInserterEPNS_6MDNodeENS_8ArrayRefINS_17OperandBundleDefTIPNS_5ValueEEEEE>:
    f07a:	55                   	push   %rbp
    f07b:	48 89 e5             	mov    %rsp,%rbp
    f07e:	48 83 ec 30          	sub    $0x30,%rsp
    f082:	48 89 7d f8          	mov    %rdi,-0x8(%rbp)
    f086:	48 89 75 f0          	mov    %rsi,-0x10(%rbp)
    f08a:	48 89 55 e8          	mov    %rdx,-0x18(%rbp)
    f08e:	48 89 4d e0          	mov    %rcx,-0x20(%rbp)
    f092:	4c 89 45 d8          	mov    %r8,-0x28(%rbp)
    f096:	48 8b 45 f8          	mov    -0x8(%rbp),%rax
    f09a:	48 89 c7             	mov    %rax,%rdi
    f09d:	e8 8a ff ff ff       	callq  f02c <_ZN4llvm8DebugLocC1Ev>
    f0a2:	48 8b 45 f8          	mov    -0x8(%rbp),%rax
    f0a6:	48 83 c0 10          	add    $0x10,%rax
    f0aa:	48 89 c7             	mov    %rax,%rdi
    f0ad:	e8 b2 ff ff ff       	callq  f064 <_ZN4llvm14ilist_iteratorINS_12ilist_detail12node_optionsINS_11InstructionELb0ELb0EvEELb0ELb0EEC1Ev>
    f0b2:	48 8b 45 f8          	mov    -0x8(%rbp),%rax
    f0b6:	48 8b 55 f0          	mov    -0x10(%rbp),%rdx
    f0ba:	48 89 50 18          	mov    %rdx,0x18(%rax)
    f0be:	48 8b 45 f8          	mov    -0x8(%rbp),%rax
    f0c2:	48 8b 55 e8          	mov    -0x18(%rbp),%rdx
    f0c6:	48 89 50 20          	mov    %rdx,0x20(%rax)
    f0ca:	48 8b 45 f8          	mov    -0x8(%rbp),%rax
    f0ce:	48 8b 55 e0          	mov    -0x20(%rbp),%rdx
    f0d2:	48 89 50 28          	mov    %rdx,0x28(%rax)
    f0d6:	48 8b 45 f8          	mov    -0x8(%rbp),%rax
    f0da:	48 8b 55 d8          	mov    -0x28(%rbp),%rdx
    f0de:	48 89 50 30          	mov    %rdx,0x30(%rax)
    f0e2:	48 8b 45 f8          	mov    -0x8(%rbp),%rax
    f0e6:	48 83 c0 38          	add    $0x38,%rax
    f0ea:	48 89 c7             	mov    %rax,%rdi
    f0ed:	e8 b8 fe ff ff       	callq  efaa <_ZN4llvm13FastMathFlagsC1Ev>
    f0f2:	48 8b 45 f8          	mov    -0x8(%rbp),%rax
    f0f6:	c6 40 3c 00          	movb   $0x0,0x3c(%rax)
    f0fa:	48 8b 45 f8          	mov    -0x8(%rbp),%rax
    f0fe:	c6 40 3d 02          	movb   $0x2,0x3d(%rax)
    f102:	48 8b 45 f8          	mov    -0x8(%rbp),%rax
    f106:	c6 40 3e 07          	movb   $0x7,0x3e(%rax)
    f10a:	48 8b 4d f8          	mov    -0x8(%rbp),%rcx
    f10e:	48 8b 45 10          	mov    0x10(%rbp),%rax
    f112:	48 8b 55 18          	mov    0x18(%rbp),%rdx
    f116:	48 89 41 40          	mov    %rax,0x40(%rcx)
    f11a:	48 89 51 48          	mov    %rdx,0x48(%rcx)
    f11e:	48 8b 45 f8          	mov    -0x8(%rbp),%rax
    f122:	48 89 c7             	mov    %rax,%rdi
    f125:	e8 04 00 00 00       	callq  f12e <_ZN4llvm13IRBuilderBase19ClearInsertionPointEv>
    f12a:	90                   	nop
    f12b:	c9                   	leaveq 
    f12c:	c3                   	retq   
    f12d:	90                   	nop

000000000000f12e <_ZN4llvm13IRBuilderBase19ClearInsertionPointEv>:
    f12e:	55                   	push   %rbp
    f12f:	48 89 e5             	mov    %rsp,%rbp
    f132:	48 83 ec 20          	sub    $0x20,%rsp
    f136:	48 89 7d e8          	mov    %rdi,-0x18(%rbp)
    f13a:	64 48 8b 04 25 28 00 	mov    %fs:0x28,%rax
    f141:	00 00 
    f143:	48 89 45 f8          	mov    %rax,-0x8(%rbp)
    f147:	31 c0                	xor    %eax,%eax
    f149:	48 8b 45 e8          	mov    -0x18(%rbp),%rax
    f14d:	48 c7 40 08 00 00 00 	movq   $0x0,0x8(%rax)
    f154:	00 
    f155:	48 c7 45 f0 00 00 00 	movq   $0x0,-0x10(%rbp)
    f15c:	00 
    f15d:	48 8d 45 f0          	lea    -0x10(%rbp),%rax
    f161:	48 89 c7             	mov    %rax,%rdi
    f164:	e8 fb fe ff ff       	callq  f064 <_ZN4llvm14ilist_iteratorINS_12ilist_detail12node_optionsINS_11InstructionELb0ELb0EvEELb0ELb0EEC1Ev>
    f169:	48 8b 45 e8          	mov    -0x18(%rbp),%rax
    f16d:	48 8b 55 f0          	mov    -0x10(%rbp),%rdx
    f171:	48 89 50 10          	mov    %rdx,0x10(%rax)
    f175:	90                   	nop
    f176:	48 8b 45 f8          	mov    -0x8(%rbp),%rax
    f17a:	64 48 2b 04 25 28 00 	sub    %fs:0x28,%rax
    f181:	00 00 
    f183:	74 05                	je     f18a <_ZN4llvm13IRBuilderBase19ClearInsertionPointEv+0x5c>
    f185:	e8 36 df ff ff       	callq  d0c0 <__stack_chk_fail@plt>
    f18a:	c9                   	leaveq 
    f18b:	c3                   	retq   

000000000000f18c <_ZN4llvm13IRBuilderBase14SetInsertPointEPNS_10BasicBlockE>:
    f18c:	55                   	push   %rbp
    f18d:	48 89 e5             	mov    %rsp,%rbp
    f190:	53                   	push   %rbx
    f191:	48 83 ec 18          	sub    $0x18,%rsp
    f195:	48 89 7d e8          	mov    %rdi,-0x18(%rbp)
    f199:	48 89 75 e0          	mov    %rsi,-0x20(%rbp)
    f19d:	48 8b 45 e8          	mov    -0x18(%rbp),%rax
    f1a1:	48 8b 55 e0          	mov    -0x20(%rbp),%rdx
    f1a5:	48 89 50 08          	mov    %rdx,0x8(%rax)
    f1a9:	48 8b 45 e8          	mov    -0x18(%rbp),%rax
    f1ad:	48 8b 40 08          	mov    0x8(%rax),%rax
    f1b1:	48 8b 5d e8          	mov    -0x18(%rbp),%rbx
    f1b5:	48 89 c7             	mov    %rax,%rdi
    f1b8:	e8 fd fa ff ff       	callq  ecba <_ZN4llvm10BasicBlock3endEv>
    f1bd:	48 89 43 10          	mov    %rax,0x10(%rbx)
    f1c1:	90                   	nop
    f1c2:	48 8b 5d f8          	mov    -0x8(%rbp),%rbx
    f1c6:	c9                   	leaveq 
    f1c7:	c3                   	retq   

000000000000f1c8 <_ZN4llvm8DebugLocC1ERKS0_>:
    f1c8:	55                   	push   %rbp
    f1c9:	48 89 e5             	mov    %rsp,%rbp
    f1cc:	48 83 ec 10          	sub    $0x10,%rsp
    f1d0:	48 89 7d f8          	mov    %rdi,-0x8(%rbp)
    f1d4:	48 89 75 f0          	mov    %rsi,-0x10(%rbp)
    f1d8:	48 8b 45 f8          	mov    -0x8(%rbp),%rax
    f1dc:	48 8b 55 f0          	mov    -0x10(%rbp),%rdx
    f1e0:	48 89 d6             	mov    %rdx,%rsi
    f1e3:	48 89 c7             	mov    %rax,%rdi
    f1e6:	e8 db 21 00 00       	callq  113c6 <_ZN4llvm18TypedTrackingMDRefINS_6MDNodeEEC1ERKS2_>
    f1eb:	90                   	nop
    f1ec:	c9                   	leaveq 
    f1ed:	c3                   	retq   

000000000000f1ee <_ZNK4llvm13IRBuilderBase20SetInstDebugLocationEPNS_11InstructionE>:
    f1ee:	55                   	push   %rbp
    f1ef:	48 89 e5             	mov    %rsp,%rbp
    f1f2:	53                   	push   %rbx
    f1f3:	48 83 ec 28          	sub    $0x28,%rsp
    f1f7:	48 89 7d d8          	mov    %rdi,-0x28(%rbp)
    f1fb:	48 89 75 d0          	mov    %rsi,-0x30(%rbp)
    f1ff:	64 48 8b 04 25 28 00 	mov    %fs:0x28,%rax
    f206:	00 00 
    f208:	48 89 45 e8          	mov    %rax,-0x18(%rbp)
    f20c:	31 c0                	xor    %eax,%eax
    f20e:	48 8b 45 d8          	mov    -0x28(%rbp),%rax
    f212:	48 89 c7             	mov    %rax,%rdi
    f215:	e8 b2 f9 ff ff       	callq  ebcc <_ZNK4llvm8DebugLoccvbEv>
    f21a:	84 c0                	test   %al,%al
    f21c:	74 4e                	je     f26c <_ZNK4llvm13IRBuilderBase20SetInstDebugLocationEPNS_11InstructionE+0x7e>
    f21e:	48 8b 55 d8          	mov    -0x28(%rbp),%rdx
    f222:	48 8d 45 e0          	lea    -0x20(%rbp),%rax
    f226:	48 89 d6             	mov    %rdx,%rsi
    f229:	48 89 c7             	mov    %rax,%rdi
    f22c:	e8 97 ff ff ff       	callq  f1c8 <_ZN4llvm8DebugLocC1ERKS0_>
    f231:	48 8d 55 e0          	lea    -0x20(%rbp),%rdx
    f235:	48 8b 45 d0          	mov    -0x30(%rbp),%rax
    f239:	48 89 d6             	mov    %rdx,%rsi
    f23c:	48 89 c7             	mov    %rax,%rdi
    f23f:	e8 d2 f9 ff ff       	callq  ec16 <_ZN4llvm11Instruction11setDebugLocENS_8DebugLocE>
    f244:	48 8d 45 e0          	lea    -0x20(%rbp),%rax
    f248:	48 89 c7             	mov    %rax,%rdi
    f24b:	e8 f8 fd ff ff       	callq  f048 <_ZN4llvm8DebugLocD1Ev>
    f250:	eb 1a                	jmp    f26c <_ZNK4llvm13IRBuilderBase20SetInstDebugLocationEPNS_11InstructionE+0x7e>
    f252:	48 89 c3             	mov    %rax,%rbx
    f255:	48 8d 45 e0          	lea    -0x20(%rbp),%rax
    f259:	48 89 c7             	mov    %rax,%rdi
    f25c:	e8 e7 fd ff ff       	callq  f048 <_ZN4llvm8DebugLocD1Ev>
    f261:	48 89 d8             	mov    %rbx,%rax
    f264:	48 89 c7             	mov    %rax,%rdi
    f267:	e8 14 e5 ff ff       	callq  d780 <_Unwind_Resume@plt>
    f26c:	90                   	nop
    f26d:	48 8b 45 e8          	mov    -0x18(%rbp),%rax
    f271:	64 48 2b 04 25 28 00 	sub    %fs:0x28,%rax
    f278:	00 00 
    f27a:	74 05                	je     f281 <_ZNK4llvm13IRBuilderBase20SetInstDebugLocationEPNS_11InstructionE+0x93>
    f27c:	e8 3f de ff ff       	callq  d0c0 <__stack_chk_fail@plt>
    f281:	48 8b 5d f8          	mov    -0x8(%rbp),%rbx
    f285:	c9                   	leaveq 
    f286:	c3                   	retq   
    f287:	90                   	nop

000000000000f288 <_ZN4llvm13IRBuilderBase9CreateRetEPNS_5ValueE>:
    f288:	55                   	push   %rbp
    f289:	48 89 e5             	mov    %rsp,%rbp
    f28c:	48 83 ec 30          	sub    $0x30,%rsp
    f290:	48 89 7d d8          	mov    %rdi,-0x28(%rbp)
    f294:	48 89 75 d0          	mov    %rsi,-0x30(%rbp)
    f298:	64 48 8b 04 25 28 00 	mov    %fs:0x28,%rax
    f29f:	00 00 
    f2a1:	48 89 45 f8          	mov    %rax,-0x8(%rbp)
    f2a5:	31 c0                	xor    %eax,%eax
    f2a7:	48 8d 45 e0          	lea    -0x20(%rbp),%rax
    f2ab:	48 8d 35 ae b0 01 00 	lea    0x1b0ae(%rip),%rsi        # 2a360 <_ZN4llvmL13UndefMaskElemE+0x4>
    f2b2:	48 89 c7             	mov    %rax,%rdi
    f2b5:	e8 36 f5 ff ff       	callq  e7f0 <_ZN4llvm5TwineC1EPKc>
    f2ba:	48 8b 45 d8          	mov    -0x28(%rbp),%rax
    f2be:	48 8b 40 18          	mov    0x18(%rax),%rax
    f2c2:	48 8b 4d d0          	mov    -0x30(%rbp),%rcx
    f2c6:	ba 00 00 00 00       	mov    $0x0,%edx
    f2cb:	48 89 ce             	mov    %rcx,%rsi
    f2ce:	48 89 c7             	mov    %rax,%rdi
    f2d1:	e8 02 fa ff ff       	callq  ecd8 <_ZN4llvm10ReturnInst6CreateERNS_11LLVMContextEPNS_5ValueEPNS_11InstructionE>
    f2d6:	48 89 c1             	mov    %rax,%rcx
    f2d9:	48 8d 55 e0          	lea    -0x20(%rbp),%rdx
    f2dd:	48 8b 45 d8          	mov    -0x28(%rbp),%rax
    f2e1:	48 89 ce             	mov    %rcx,%rsi
    f2e4:	48 89 c7             	mov    %rax,%rdi
    f2e7:	e8 00 21 00 00       	callq  113ec <_ZNK4llvm13IRBuilderBase6InsertINS_10ReturnInstEEEPT_S4_RKNS_5TwineE>
    f2ec:	48 8b 55 f8          	mov    -0x8(%rbp),%rdx
    f2f0:	64 48 2b 14 25 28 00 	sub    %fs:0x28,%rdx
    f2f7:	00 00 
    f2f9:	74 05                	je     f300 <_ZN4llvm13IRBuilderBase9CreateRetEPNS_5ValueE+0x78>
    f2fb:	e8 c0 dd ff ff       	callq  d0c0 <__stack_chk_fail@plt>
    f300:	c9                   	leaveq 
    f301:	c3                   	retq   

000000000000f302 <_ZN4llvm6TripleD1Ev>:
    f302:	55                   	push   %rbp
    f303:	48 89 e5             	mov    %rsp,%rbp
    f306:	48 83 ec 10          	sub    $0x10,%rsp
    f30a:	48 89 7d f8          	mov    %rdi,-0x8(%rbp)
    f30e:	48 8b 45 f8          	mov    -0x8(%rbp),%rax
    f312:	48 89 c7             	mov    %rax,%rdi
    f315:	e8 56 e1 ff ff       	callq  d470 <_ZNSt7__cxx1112basic_stringIcSt11char_traitsIcESaIcEED1Ev@plt>
    f31a:	90                   	nop
    f31b:	c9                   	leaveq 
    f31c:	c3                   	retq   
    f31d:	90                   	nop

000000000000f31e <_ZNK4llvm6Target19createTargetMachineENS_9StringRefES1_S1_RKNS_13TargetOptionsENS_8OptionalINS_5Reloc5ModelEEENS5_INS_9CodeModel5ModelEEENS_10CodeGenOpt5LevelEb>:
    f31e:	55                   	push   %rbp
    f31f:	48 89 e5             	mov    %rsp,%rbp
    f322:	41 55                	push   %r13
    f324:	41 54                	push   %r12
    f326:	53                   	push   %rbx
    f327:	48 81 ec a8 00 00 00 	sub    $0xa8,%rsp
    f32e:	48 89 bd 78 ff ff ff 	mov    %rdi,-0x88(%rbp)
    f335:	48 89 f0             	mov    %rsi,%rax
    f338:	48 89 d6             	mov    %rdx,%rsi
    f33b:	48 89 f2             	mov    %rsi,%rdx
    f33e:	48 89 85 60 ff ff ff 	mov    %rax,-0xa0(%rbp)
    f345:	48 89 95 68 ff ff ff 	mov    %rdx,-0x98(%rbp)
    f34c:	48 89 c8             	mov    %rcx,%rax
    f34f:	4c 89 c1             	mov    %r8,%rcx
    f352:	48 89 ca             	mov    %rcx,%rdx
    f355:	48 89 85 50 ff ff ff 	mov    %rax,-0xb0(%rbp)
    f35c:	48 89 95 58 ff ff ff 	mov    %rdx,-0xa8(%rbp)
    f363:	4c 89 8d 70 ff ff ff 	mov    %r9,-0x90(%rbp)
    f36a:	8b 45 38             	mov    0x38(%rbp),%eax
    f36d:	88 85 4c ff ff ff    	mov    %al,-0xb4(%rbp)
    f373:	64 48 8b 04 25 28 00 	mov    %fs:0x28,%rax
    f37a:	00 00 
    f37c:	48 89 45 d8          	mov    %rax,-0x28(%rbp)
    f380:	31 c0                	xor    %eax,%eax
    f382:	48 8b 85 78 ff ff ff 	mov    -0x88(%rbp),%rax
    f389:	48 8b 40 58          	mov    0x58(%rax),%rax
    f38d:	48 85 c0             	test   %rax,%rax
    f390:	75 0a                	jne    f39c <_ZNK4llvm6Target19createTargetMachineENS_9StringRefES1_S1_RKNS_13TargetOptionsENS_8OptionalINS_5Reloc5ModelEEENS5_INS_9CodeModel5ModelEEENS_10CodeGenOpt5LevelEb+0x7e>
    f392:	bb 00 00 00 00       	mov    $0x0,%ebx
    f397:	e9 98 00 00 00       	jmpq   f434 <_ZNK4llvm6Target19createTargetMachineENS_9StringRefES1_S1_RKNS_13TargetOptionsENS_8OptionalINS_5Reloc5ModelEEENS5_INS_9CodeModel5ModelEEENS_10CodeGenOpt5LevelEb+0x116>
    f39c:	48 8b 85 78 ff ff ff 	mov    -0x88(%rbp),%rax
    f3a3:	4c 8b 60 58          	mov    0x58(%rax),%r12
    f3a7:	44 0f b6 ad 4c ff ff 	movzbl -0xb4(%rbp),%r13d
    f3ae:	ff 
    f3af:	48 8d 95 60 ff ff ff 	lea    -0xa0(%rbp),%rdx
    f3b6:	48 8d 45 80          	lea    -0x80(%rbp),%rax
    f3ba:	48 89 d6             	mov    %rdx,%rsi
    f3bd:	48 89 c7             	mov    %rax,%rdi
    f3c0:	e8 05 f5 ff ff       	callq  e8ca <_ZN4llvm5TwineC1ERKNS_9StringRefE>
    f3c5:	48 8d 55 80          	lea    -0x80(%rbp),%rdx
    f3c9:	48 8d 45 a0          	lea    -0x60(%rbp),%rax
    f3cd:	48 89 d6             	mov    %rdx,%rsi
    f3d0:	48 89 c7             	mov    %rax,%rdi
    f3d3:	e8 b8 e4 ff ff       	callq  d890 <_ZN4llvm6TripleC1ERKNS_5TwineE@plt>
    f3d8:	48 8b 4d 10          	mov    0x10(%rbp),%rcx
    f3dc:	48 8b 5d 18          	mov    0x18(%rbp),%rbx
    f3e0:	48 8b 85 50 ff ff ff 	mov    -0xb0(%rbp),%rax
    f3e7:	48 8b 95 58 ff ff ff 	mov    -0xa8(%rbp),%rdx
    f3ee:	48 8d 75 a0          	lea    -0x60(%rbp),%rsi
    f3f2:	48 8b bd 78 ff ff ff 	mov    -0x88(%rbp),%rdi
    f3f9:	48 83 ec 08          	sub    $0x8,%rsp
    f3fd:	41 55                	push   %r13
    f3ff:	44 8b 45 30          	mov    0x30(%rbp),%r8d
    f403:	41 50                	push   %r8
    f405:	ff 75 28             	pushq  0x28(%rbp)
    f408:	ff 75 20             	pushq  0x20(%rbp)
    f40b:	ff b5 70 ff ff ff    	pushq  -0x90(%rbp)
    f411:	49 89 c8             	mov    %rcx,%r8
    f414:	49 89 d9             	mov    %rbx,%r9
    f417:	48 89 d1             	mov    %rdx,%rcx
    f41a:	48 89 c2             	mov    %rax,%rdx
    f41d:	41 ff d4             	callq  *%r12
    f420:	48 83 c4 30          	add    $0x30,%rsp
    f424:	48 89 c3             	mov    %rax,%rbx
    f427:	90                   	nop
    f428:	48 8d 45 a0          	lea    -0x60(%rbp),%rax
    f42c:	48 89 c7             	mov    %rax,%rdi
    f42f:	e8 ce fe ff ff       	callq  f302 <_ZN4llvm6TripleD1Ev>
    f434:	48 89 d8             	mov    %rbx,%rax
    f437:	48 8b 4d d8          	mov    -0x28(%rbp),%rcx
    f43b:	64 48 2b 0c 25 28 00 	sub    %fs:0x28,%rcx
    f442:	00 00 
    f444:	74 21                	je     f467 <_ZNK4llvm6Target19createTargetMachineENS_9StringRefES1_S1_RKNS_13TargetOptionsENS_8OptionalINS_5Reloc5ModelEEENS5_INS_9CodeModel5ModelEEENS_10CodeGenOpt5LevelEb+0x149>
    f446:	eb 1a                	jmp    f462 <_ZNK4llvm6Target19createTargetMachineENS_9StringRefES1_S1_RKNS_13TargetOptionsENS_8OptionalINS_5Reloc5ModelEEENS5_INS_9CodeModel5ModelEEENS_10CodeGenOpt5LevelEb+0x144>
    f448:	48 89 c3             	mov    %rax,%rbx
    f44b:	48 8d 45 a0          	lea    -0x60(%rbp),%rax
    f44f:	48 89 c7             	mov    %rax,%rdi
    f452:	e8 ab fe ff ff       	callq  f302 <_ZN4llvm6TripleD1Ev>
    f457:	48 89 d8             	mov    %rbx,%rax
    f45a:	48 89 c7             	mov    %rax,%rdi
    f45d:	e8 1e e3 ff ff       	callq  d780 <_Unwind_Resume@plt>
    f462:	e8 59 dc ff ff       	callq  d0c0 <__stack_chk_fail@plt>
    f467:	48 8d 65 e8          	lea    -0x18(%rbp),%rsp
    f46b:	5b                   	pop    %rbx
    f46c:	41 5c                	pop    %r12
    f46e:	41 5d                	pop    %r13
    f470:	5d                   	pop    %rbp
    f471:	c3                   	retq   

000000000000f472 <_ZN4llvm24InitializeAllTargetInfosEv>:
    f472:	55                   	push   %rbp
    f473:	48 89 e5             	mov    %rsp,%rbp
    f476:	e8 95 e4 ff ff       	callq  d910 <LLVMInitializeAArch64TargetInfo@plt>
    f47b:	e8 b0 de ff ff       	callq  d330 <LLVMInitializeAMDGPUTargetInfo@plt>
    f480:	e8 1b e5 ff ff       	callq  d9a0 <LLVMInitializeARMTargetInfo@plt>
    f485:	e8 36 de ff ff       	callq  d2c0 <LLVMInitializeAVRTargetInfo@plt>
    f48a:	e8 d1 e1 ff ff       	callq  d660 <LLVMInitializeBPFTargetInfo@plt>
    f48f:	e8 9c e7 ff ff       	callq  dc30 <LLVMInitializeHexagonTargetInfo@plt>
    f494:	e8 e7 e0 ff ff       	callq  d580 <LLVMInitializeLanaiTargetInfo@plt>
    f499:	e8 e2 e3 ff ff       	callq  d880 <LLVMInitializeMipsTargetInfo@plt>
    f49e:	e8 6d e5 ff ff       	callq  da10 <LLVMInitializeMSP430TargetInfo@plt>
    f4a3:	e8 f8 dc ff ff       	callq  d1a0 <LLVMInitializeNVPTXTargetInfo@plt>
    f4a8:	e8 63 df ff ff       	callq  d410 <LLVMInitializePowerPCTargetInfo@plt>
    f4ad:	e8 de db ff ff       	callq  d090 <LLVMInitializeRISCVTargetInfo@plt>
    f4b2:	e8 79 e5 ff ff       	callq  da30 <LLVMInitializeSparcTargetInfo@plt>
    f4b7:	e8 34 df ff ff       	callq  d3f0 <LLVMInitializeSystemZTargetInfo@plt>
    f4bc:	e8 3f e6 ff ff       	callq  db00 <LLVMInitializeWebAssemblyTargetInfo@plt>
    f4c1:	e8 7a e6 ff ff       	callq  db40 <LLVMInitializeX86TargetInfo@plt>
    f4c6:	e8 45 e6 ff ff       	callq  db10 <LLVMInitializeXCoreTargetInfo@plt>
    f4cb:	90                   	nop
    f4cc:	5d                   	pop    %rbp
    f4cd:	c3                   	retq   

000000000000f4ce <_ZN4llvm20InitializeAllTargetsEv>:
    f4ce:	55                   	push   %rbp
    f4cf:	48 89 e5             	mov    %rsp,%rbp
    f4d2:	e8 9b ff ff ff       	callq  f472 <_ZN4llvm24InitializeAllTargetInfosEv>
    f4d7:	e8 94 dc ff ff       	callq  d170 <LLVMInitializeAArch64Target@plt>
    f4dc:	e8 6f e7 ff ff       	callq  dc50 <LLVMInitializeAMDGPUTarget@plt>
    f4e1:	e8 2a e0 ff ff       	callq  d510 <LLVMInitializeARMTarget@plt>
    f4e6:	e8 b5 e5 ff ff       	callq  daa0 <LLVMInitializeAVRTarget@plt>
    f4eb:	e8 50 dd ff ff       	callq  d240 <LLVMInitializeBPFTarget@plt>
    f4f0:	e8 2b e5 ff ff       	callq  da20 <LLVMInitializeHexagonTarget@plt>
    f4f5:	e8 f6 e6 ff ff       	callq  dbf0 <LLVMInitializeLanaiTarget@plt>
    f4fa:	e8 91 de ff ff       	callq  d390 <LLVMInitializeMipsTarget@plt>
    f4ff:	e8 ac e1 ff ff       	callq  d6b0 <LLVMInitializeMSP430Target@plt>
    f504:	e8 67 e3 ff ff       	callq  d870 <LLVMInitializeNVPTXTarget@plt>
    f509:	e8 42 e0 ff ff       	callq  d550 <LLVMInitializePowerPCTarget@plt>
    f50e:	e8 5d dd ff ff       	callq  d270 <LLVMInitializeRISCVTarget@plt>
    f513:	e8 e8 e1 ff ff       	callq  d700 <LLVMInitializeSparcTarget@plt>
    f518:	e8 e3 e2 ff ff       	callq  d800 <LLVMInitializeSystemZTarget@plt>
    f51d:	e8 0e db ff ff       	callq  d030 <LLVMInitializeWebAssemblyTarget@plt>
    f522:	e8 19 dc ff ff       	callq  d140 <LLVMInitializeX86Target@plt>
    f527:	e8 c4 df ff ff       	callq  d4f0 <LLVMInitializeXCoreTarget@plt>
    f52c:	90                   	nop
    f52d:	5d                   	pop    %rbp
    f52e:	c3                   	retq   

000000000000f52f <_ZN4llvm22InitializeAllTargetMCsEv>:
    f52f:	55                   	push   %rbp
    f530:	48 89 e5             	mov    %rsp,%rbp
    f533:	e8 88 e3 ff ff       	callq  d8c0 <LLVMInitializeAArch64TargetMC@plt>
    f538:	e8 93 de ff ff       	callq  d3d0 <LLVMInitializeAMDGPUTargetMC@plt>
    f53d:	e8 fe e0 ff ff       	callq  d640 <LLVMInitializeARMTargetMC@plt>
    f542:	e8 49 e1 ff ff       	callq  d690 <LLVMInitializeAVRTargetMC@plt>
    f547:	e8 24 e0 ff ff       	callq  d570 <LLVMInitializeBPFTargetMC@plt>
    f54c:	e8 ff de ff ff       	callq  d450 <LLVMInitializeHexagonTargetMC@plt>
    f551:	e8 fa e5 ff ff       	callq  db50 <LLVMInitializeLanaiTargetMC@plt>
    f556:	e8 c5 e6 ff ff       	callq  dc20 <LLVMInitializeMipsTargetMC@plt>
    f55b:	e8 c0 dd ff ff       	callq  d320 <LLVMInitializeMSP430TargetMC@plt>
    f560:	e8 6b e2 ff ff       	callq  d7d0 <LLVMInitializeNVPTXTargetMC@plt>
    f565:	e8 86 e0 ff ff       	callq  d5f0 <LLVMInitializePowerPCTargetMC@plt>
    f56a:	e8 41 df ff ff       	callq  d4b0 <LLVMInitializeRISCVTargetMC@plt>
    f56f:	e8 6c e2 ff ff       	callq  d7e0 <LLVMInitializeSparcTargetMC@plt>
    f574:	e8 07 e6 ff ff       	callq  db80 <LLVMInitializeSystemZTargetMC@plt>
    f579:	e8 92 dc ff ff       	callq  d210 <LLVMInitializeWebAssemblyTargetMC@plt>
    f57e:	e8 cd da ff ff       	callq  d050 <LLVMInitializeX86TargetMC@plt>
    f583:	e8 d8 e6 ff ff       	callq  dc60 <LLVMInitializeXCoreTargetMC@plt>
    f588:	90                   	nop
    f589:	5d                   	pop    %rbp
    f58a:	c3                   	retq   

000000000000f58b <_ZN4llvm24InitializeAllAsmPrintersEv>:
    f58b:	55                   	push   %rbp
    f58c:	48 89 e5             	mov    %rsp,%rbp
    f58f:	e8 cc dc ff ff       	callq  d260 <LLVMInitializeAArch64AsmPrinter@plt>
    f594:	e8 27 df ff ff       	callq  d4c0 <LLVMInitializeAMDGPUAsmPrinter@plt>
    f599:	e8 02 e6 ff ff       	callq  dba0 <LLVMInitializeARMAsmPrinter@plt>
    f59e:	e8 fd e1 ff ff       	callq  d7a0 <LLVMInitializeAVRAsmPrinter@plt>
    f5a3:	e8 b8 e5 ff ff       	callq  db60 <LLVMInitializeBPFAsmPrinter@plt>
    f5a8:	e8 33 dd ff ff       	callq  d2e0 <LLVMInitializeHexagonAsmPrinter@plt>
    f5ad:	e8 de de ff ff       	callq  d490 <LLVMInitializeLanaiAsmPrinter@plt>
    f5b2:	e8 89 e3 ff ff       	callq  d940 <LLVMInitializeMipsAsmPrinter@plt>
    f5b7:	e8 64 df ff ff       	callq  d520 <LLVMInitializeMSP430AsmPrinter@plt>
    f5bc:	e8 4f dd ff ff       	callq  d310 <LLVMInitializeNVPTXAsmPrinter@plt>
    f5c1:	e8 4a e6 ff ff       	callq  dc10 <LLVMInitializePowerPCAsmPrinter@plt>
    f5c6:	e8 35 e4 ff ff       	callq  da00 <LLVMInitializeRISCVAsmPrinter@plt>
    f5cb:	e8 a0 e3 ff ff       	callq  d970 <LLVMInitializeSparcAsmPrinter@plt>
    f5d0:	e8 5b de ff ff       	callq  d430 <LLVMInitializeSystemZAsmPrinter@plt>
    f5d5:	e8 06 e3 ff ff       	callq  d8e0 <LLVMInitializeWebAssemblyAsmPrinter@plt>
    f5da:	e8 71 e2 ff ff       	callq  d850 <LLVMInitializeX86AsmPrinter@plt>
    f5df:	e8 0c e2 ff ff       	callq  d7f0 <LLVMInitializeXCoreAsmPrinter@plt>
    f5e4:	90                   	nop
    f5e5:	5d                   	pop    %rbp
    f5e6:	c3                   	retq   

000000000000f5e7 <_ZN4llvm23InitializeAllAsmParsersEv>:
    f5e7:	55                   	push   %rbp
    f5e8:	48 89 e5             	mov    %rsp,%rbp
    f5eb:	e8 50 e4 ff ff       	callq  da40 <LLVMInitializeAArch64AsmParser@plt>
    f5f0:	e8 ab df ff ff       	callq  d5a0 <LLVMInitializeAMDGPUAsmParser@plt>
    f5f5:	e8 96 e3 ff ff       	callq  d990 <LLVMInitializeARMAsmParser@plt>
    f5fa:	e8 c1 e4 ff ff       	callq  dac0 <LLVMInitializeAVRAsmParser@plt>
    f5ff:	e8 2c e1 ff ff       	callq  d730 <LLVMInitializeBPFAsmParser@plt>
    f604:	e8 67 dd ff ff       	callq  d370 <LLVMInitializeHexagonAsmParser@plt>
    f609:	e8 d2 e0 ff ff       	callq  d6e0 <LLVMInitializeLanaiAsmParser@plt>
    f60e:	e8 cd e4 ff ff       	callq  dae0 <LLVMInitializeMipsAsmParser@plt>
    f613:	e8 08 de ff ff       	callq  d420 <LLVMInitializeMSP430AsmParser@plt>
    f618:	e8 63 dc ff ff       	callq  d280 <LLVMInitializePowerPCAsmParser@plt>
    f61d:	e8 de e2 ff ff       	callq  d900 <LLVMInitializeRISCVAsmParser@plt>
    f622:	e8 a9 db ff ff       	callq  d1d0 <LLVMInitializeSparcAsmParser@plt>
    f627:	e8 94 e3 ff ff       	callq  d9c0 <LLVMInitializeSystemZAsmParser@plt>
    f62c:	e8 df e1 ff ff       	callq  d810 <LLVMInitializeWebAssemblyAsmParser@plt>
    f631:	e8 aa dd ff ff       	callq  d3e0 <LLVMInitializeX86AsmParser@plt>
    f636:	90                   	nop
    f637:	5d                   	pop    %rbp
    f638:	c3                   	retq   
    f639:	90                   	nop

000000000000f63a <_ZNSt12__shared_ptrIN4llvm12MemoryBufferELN9__gnu_cxx12_Lock_policyE2EED1Ev>:
    f63a:	55                   	push   %rbp
    f63b:	48 89 e5             	mov    %rsp,%rbp
    f63e:	48 83 ec 10          	sub    $0x10,%rsp
    f642:	48 89 7d f8          	mov    %rdi,-0x8(%rbp)
    f646:	48 8b 45 f8          	mov    -0x8(%rbp),%rax
    f64a:	48 83 c0 08          	add    $0x8,%rax
    f64e:	48 89 c7             	mov    %rax,%rdi
    f651:	e8 fe 1d 00 00       	callq  11454 <_ZNSt14__shared_countILN9__gnu_cxx12_Lock_policyE2EED1Ev>
    f656:	90                   	nop
    f657:	c9                   	leaveq 
    f658:	c3                   	retq   
    f659:	90                   	nop

000000000000f65a <_ZNSt10shared_ptrIN4llvm12MemoryBufferEED1Ev>:
    f65a:	55                   	push   %rbp
    f65b:	48 89 e5             	mov    %rsp,%rbp
    f65e:	48 83 ec 10          	sub    $0x10,%rsp
    f662:	48 89 7d f8          	mov    %rdi,-0x8(%rbp)
    f666:	48 8b 45 f8          	mov    -0x8(%rbp),%rax
    f66a:	48 89 c7             	mov    %rax,%rdi
    f66d:	e8 c8 ff ff ff       	callq  f63a <_ZNSt12__shared_ptrIN4llvm12MemoryBufferELN9__gnu_cxx12_Lock_policyE2EED1Ev>
    f672:	90                   	nop
    f673:	c9                   	leaveq 
    f674:	c3                   	retq   
    f675:	90                   	nop

000000000000f676 <_ZN4llvm15MCTargetOptionsD1Ev>:
    f676:	55                   	push   %rbp
    f677:	48 89 e5             	mov    %rsp,%rbp
    f67a:	48 83 ec 10          	sub    $0x10,%rsp
    f67e:	48 89 7d f8          	mov    %rdi,-0x8(%rbp)
    f682:	48 8b 45 f8          	mov    -0x8(%rbp),%rax
    f686:	48 83 e8 80          	sub    $0xffffffffffffff80,%rax
    f68a:	48 89 c7             	mov    %rax,%rdi
    f68d:	e8 08 1e 00 00       	callq  1149a <_ZNSt6vectorINSt7__cxx1112basic_stringIcSt11char_traitsIcESaIcEEESaIS5_EED1Ev>
    f692:	48 8b 45 f8          	mov    -0x8(%rbp),%rax
    f696:	48 83 c0 48          	add    $0x48,%rax
    f69a:	48 89 c7             	mov    %rax,%rdi
    f69d:	e8 ce dd ff ff       	callq  d470 <_ZNSt7__cxx1112basic_stringIcSt11char_traitsIcESaIcEED1Ev@plt>
    f6a2:	48 8b 45 f8          	mov    -0x8(%rbp),%rax
    f6a6:	48 83 c0 28          	add    $0x28,%rax
    f6aa:	48 89 c7             	mov    %rax,%rdi
    f6ad:	e8 be dd ff ff       	callq  d470 <_ZNSt7__cxx1112basic_stringIcSt11char_traitsIcESaIcEED1Ev@plt>
    f6b2:	48 8b 45 f8          	mov    -0x8(%rbp),%rax
    f6b6:	48 83 c0 08          	add    $0x8,%rax
    f6ba:	48 89 c7             	mov    %rax,%rdi
    f6bd:	e8 ae dd ff ff       	callq  d470 <_ZNSt7__cxx1112basic_stringIcSt11char_traitsIcESaIcEED1Ev@plt>
    f6c2:	90                   	nop
    f6c3:	c9                   	leaveq 
    f6c4:	c3                   	retq   
    f6c5:	90                   	nop

000000000000f6c6 <_ZN4llvm13TargetOptionsC1Ev>:
    f6c6:	55                   	push   %rbp
    f6c7:	48 89 e5             	mov    %rsp,%rbp
    f6ca:	53                   	push   %rbx
    f6cb:	48 83 ec 18          	sub    $0x18,%rsp
    f6cf:	48 89 7d e8          	mov    %rdi,-0x18(%rbp)
    f6d3:	48 8b 45 e8          	mov    -0x18(%rbp),%rax
    f6d7:	0f b6 10             	movzbl (%rax),%edx
    f6da:	83 e2 fe             	and    $0xfffffffe,%edx
    f6dd:	88 10                	mov    %dl,(%rax)
    f6df:	48 8b 45 e8          	mov    -0x18(%rbp),%rax
    f6e3:	0f b6 10             	movzbl (%rax),%edx
    f6e6:	83 e2 fd             	and    $0xfffffffd,%edx
    f6e9:	88 10                	mov    %dl,(%rax)
    f6eb:	48 8b 45 e8          	mov    -0x18(%rbp),%rax
    f6ef:	0f b6 10             	movzbl (%rax),%edx
    f6f2:	83 e2 fb             	and    $0xfffffffb,%edx
    f6f5:	88 10                	mov    %dl,(%rax)
    f6f7:	48 8b 45 e8          	mov    -0x18(%rbp),%rax
    f6fb:	0f b6 10             	movzbl (%rax),%edx
    f6fe:	83 e2 f7             	and    $0xfffffff7,%edx
    f701:	88 10                	mov    %dl,(%rax)
    f703:	48 8b 45 e8          	mov    -0x18(%rbp),%rax
    f707:	0f b6 10             	movzbl (%rax),%edx
    f70a:	83 ca 10             	or     $0x10,%edx
    f70d:	88 10                	mov    %dl,(%rax)
    f70f:	48 8b 45 e8          	mov    -0x18(%rbp),%rax
    f713:	0f b6 10             	movzbl (%rax),%edx
    f716:	83 e2 df             	and    $0xffffffdf,%edx
    f719:	88 10                	mov    %dl,(%rax)
    f71b:	48 8b 45 e8          	mov    -0x18(%rbp),%rax
    f71f:	0f b6 10             	movzbl (%rax),%edx
    f722:	83 e2 bf             	and    $0xffffffbf,%edx
    f725:	88 10                	mov    %dl,(%rax)
    f727:	48 8b 45 e8          	mov    -0x18(%rbp),%rax
    f72b:	0f b6 10             	movzbl (%rax),%edx
    f72e:	83 e2 7f             	and    $0x7f,%edx
    f731:	88 10                	mov    %dl,(%rax)
    f733:	48 8b 45 e8          	mov    -0x18(%rbp),%rax
    f737:	0f b6 50 01          	movzbl 0x1(%rax),%edx
    f73b:	83 e2 fe             	and    $0xfffffffe,%edx
    f73e:	88 50 01             	mov    %dl,0x1(%rax)
    f741:	48 8b 45 e8          	mov    -0x18(%rbp),%rax
    f745:	c7 40 04 00 00 00 00 	movl   $0x0,0x4(%rax)
    f74c:	48 8b 45 e8          	mov    -0x18(%rbp),%rax
    f750:	0f b6 50 08          	movzbl 0x8(%rax),%edx
    f754:	83 ca 01             	or     $0x1,%edx
    f757:	88 50 08             	mov    %dl,0x8(%rax)
    f75a:	48 8b 45 e8          	mov    -0x18(%rbp),%rax
    f75e:	0f b6 50 08          	movzbl 0x8(%rax),%edx
    f762:	83 e2 fd             	and    $0xfffffffd,%edx
    f765:	88 50 08             	mov    %dl,0x8(%rax)
    f768:	48 8b 45 e8          	mov    -0x18(%rbp),%rax
    f76c:	0f b6 50 08          	movzbl 0x8(%rax),%edx
    f770:	83 e2 fb             	and    $0xfffffffb,%edx
    f773:	88 50 08             	mov    %dl,0x8(%rax)
    f776:	48 8b 45 e8          	mov    -0x18(%rbp),%rax
    f77a:	c7 40 0c 01 00 00 00 	movl   $0x1,0xc(%rax)
    f781:	48 8b 45 e8          	mov    -0x18(%rbp),%rax
    f785:	0f b6 50 10          	movzbl 0x10(%rax),%edx
    f789:	83 e2 fe             	and    $0xfffffffe,%edx
    f78c:	88 50 10             	mov    %dl,0x10(%rax)
    f78f:	48 8b 45 e8          	mov    -0x18(%rbp),%rax
    f793:	0f b6 50 10          	movzbl 0x10(%rax),%edx
    f797:	83 e2 fd             	and    $0xfffffffd,%edx
    f79a:	88 50 10             	mov    %dl,0x10(%rax)
    f79d:	48 8b 45 e8          	mov    -0x18(%rbp),%rax
    f7a1:	c7 40 14 00 00 00 00 	movl   $0x0,0x14(%rax)
    f7a8:	48 8b 45 e8          	mov    -0x18(%rbp),%rax
    f7ac:	0f b6 50 18          	movzbl 0x18(%rax),%edx
    f7b0:	83 e2 fe             	and    $0xfffffffe,%edx
    f7b3:	88 50 18             	mov    %dl,0x18(%rax)
    f7b6:	48 8b 45 e8          	mov    -0x18(%rbp),%rax
    f7ba:	0f b6 50 18          	movzbl 0x18(%rax),%edx
    f7be:	83 e2 fd             	and    $0xfffffffd,%edx
    f7c1:	88 50 18             	mov    %dl,0x18(%rax)
    f7c4:	48 8b 45 e8          	mov    -0x18(%rbp),%rax
    f7c8:	0f b6 50 18          	movzbl 0x18(%rax),%edx
    f7cc:	83 e2 fb             	and    $0xfffffffb,%edx
    f7cf:	88 50 18             	mov    %dl,0x18(%rax)
    f7d2:	48 8b 45 e8          	mov    -0x18(%rbp),%rax
    f7d6:	0f b6 50 18          	movzbl 0x18(%rax),%edx
    f7da:	83 ca 08             	or     $0x8,%edx
    f7dd:	88 50 18             	mov    %dl,0x18(%rax)
    f7e0:	48 8b 45 e8          	mov    -0x18(%rbp),%rax
    f7e4:	0f b6 50 18          	movzbl 0x18(%rax),%edx
    f7e8:	83 e2 ef             	and    $0xffffffef,%edx
    f7eb:	88 50 18             	mov    %dl,0x18(%rax)
    f7ee:	48 8b 45 e8          	mov    -0x18(%rbp),%rax
    f7f2:	0f b6 50 18          	movzbl 0x18(%rax),%edx
    f7f6:	83 e2 df             	and    $0xffffffdf,%edx
    f7f9:	88 50 18             	mov    %dl,0x18(%rax)
    f7fc:	48 8b 45 e8          	mov    -0x18(%rbp),%rax
    f800:	0f b6 50 18          	movzbl 0x18(%rax),%edx
    f804:	83 e2 bf             	and    $0xffffffbf,%edx
    f807:	88 50 18             	mov    %dl,0x18(%rax)
    f80a:	48 8b 45 e8          	mov    -0x18(%rbp),%rax
    f80e:	0f b7 50 18          	movzwl 0x18(%rax),%edx
    f812:	66 81 e2 7f 80       	and    $0x807f,%dx
    f817:	66 89 50 18          	mov    %dx,0x18(%rax)
    f81b:	48 8b 45 e8          	mov    -0x18(%rbp),%rax
    f81f:	0f b6 50 19          	movzbl 0x19(%rax),%edx
    f823:	83 e2 7f             	and    $0x7f,%edx
    f826:	88 50 19             	mov    %dl,0x19(%rax)
    f829:	48 8b 45 e8          	mov    -0x18(%rbp),%rax
    f82d:	0f b6 50 1a          	movzbl 0x1a(%rax),%edx
    f831:	83 e2 fe             	and    $0xfffffffe,%edx
    f834:	88 50 1a             	mov    %dl,0x1a(%rax)
    f837:	48 8b 45 e8          	mov    -0x18(%rbp),%rax
    f83b:	0f b6 50 1a          	movzbl 0x1a(%rax),%edx
    f83f:	83 e2 fd             	and    $0xfffffffd,%edx
    f842:	88 50 1a             	mov    %dl,0x1a(%rax)
    f845:	48 8b 45 e8          	mov    -0x18(%rbp),%rax
    f849:	0f b6 50 1a          	movzbl 0x1a(%rax),%edx
    f84d:	83 e2 fb             	and    $0xfffffffb,%edx
    f850:	88 50 1a             	mov    %dl,0x1a(%rax)
    f853:	48 8b 45 e8          	mov    -0x18(%rbp),%rax
    f857:	0f b6 50 1a          	movzbl 0x1a(%rax),%edx
    f85b:	83 e2 f7             	and    $0xfffffff7,%edx
    f85e:	88 50 1a             	mov    %dl,0x1a(%rax)
    f861:	48 8b 45 e8          	mov    -0x18(%rbp),%rax
    f865:	0f b6 50 1a          	movzbl 0x1a(%rax),%edx
    f869:	83 e2 ef             	and    $0xffffffef,%edx
    f86c:	88 50 1a             	mov    %dl,0x1a(%rax)
    f86f:	48 8b 45 e8          	mov    -0x18(%rbp),%rax
    f873:	0f b6 50 1a          	movzbl 0x1a(%rax),%edx
    f877:	83 e2 df             	and    $0xffffffdf,%edx
    f87a:	88 50 1a             	mov    %dl,0x1a(%rax)
    f87d:	48 8b 45 e8          	mov    -0x18(%rbp),%rax
    f881:	c7 40 1c 03 00 00 00 	movl   $0x3,0x1c(%rax)
    f888:	48 8b 45 e8          	mov    -0x18(%rbp),%rax
    f88c:	48 83 c0 20          	add    $0x20,%rax
    f890:	48 89 c7             	mov    %rax,%rdi
    f893:	e8 e6 1b 00 00       	callq  1147e <_ZNSt10shared_ptrIN4llvm12MemoryBufferEEC1Ev>
    f898:	48 8b 45 e8          	mov    -0x18(%rbp),%rax
    f89c:	0f b6 50 30          	movzbl 0x30(%rax),%edx
    f8a0:	83 e2 fe             	and    $0xfffffffe,%edx
    f8a3:	88 50 30             	mov    %dl,0x30(%rax)
    f8a6:	48 8b 45 e8          	mov    -0x18(%rbp),%rax
    f8aa:	0f b6 50 30          	movzbl 0x30(%rax),%edx
    f8ae:	83 e2 fd             	and    $0xfffffffd,%edx
    f8b1:	88 50 30             	mov    %dl,0x30(%rax)
    f8b4:	48 8b 45 e8          	mov    -0x18(%rbp),%rax
    f8b8:	0f b6 50 30          	movzbl 0x30(%rax),%edx
    f8bc:	83 e2 fb             	and    $0xfffffffb,%edx
    f8bf:	88 50 30             	mov    %dl,0x30(%rax)
    f8c2:	48 8b 45 e8          	mov    -0x18(%rbp),%rax
    f8c6:	0f b6 50 30          	movzbl 0x30(%rax),%edx
    f8ca:	83 e2 f7             	and    $0xfffffff7,%edx
    f8cd:	88 50 30             	mov    %dl,0x30(%rax)
    f8d0:	48 8b 45 e8          	mov    -0x18(%rbp),%rax
    f8d4:	0f b6 50 30          	movzbl 0x30(%rax),%edx
    f8d8:	83 e2 ef             	and    $0xffffffef,%edx
    f8db:	88 50 30             	mov    %dl,0x30(%rax)
    f8de:	48 8b 45 e8          	mov    -0x18(%rbp),%rax
    f8e2:	c7 40 34 00 00 00 00 	movl   $0x0,0x34(%rax)
    f8e9:	48 8b 45 e8          	mov    -0x18(%rbp),%rax
    f8ed:	c7 40 38 01 00 00 00 	movl   $0x1,0x38(%rax)
    f8f4:	48 8b 45 e8          	mov    -0x18(%rbp),%rax
    f8f8:	c7 40 3c 00 00 00 00 	movl   $0x0,0x3c(%rax)
    f8ff:	48 8b 45 e8          	mov    -0x18(%rbp),%rax
    f903:	c7 40 40 01 00 00 00 	movl   $0x1,0x40(%rax)
    f90a:	48 8b 45 e8          	mov    -0x18(%rbp),%rax
    f90e:	c7 40 44 00 00 00 00 	movl   $0x0,0x44(%rax)
    f915:	48 8b 45 e8          	mov    -0x18(%rbp),%rax
    f919:	48 83 c0 48          	add    $0x48,%rax
    f91d:	ba 00 00 00 00       	mov    $0x0,%edx
    f922:	be 00 00 00 00       	mov    $0x0,%esi
    f927:	48 89 c7             	mov    %rax,%rdi
    f92a:	e8 81 ec ff ff       	callq  e5b0 <_ZN4llvm12DenormalModeC1ENS0_16DenormalModeKindES1_>
    f92f:	48 8b 45 e8          	mov    -0x18(%rbp),%rax
    f933:	48 83 c0 4a          	add    $0x4a,%rax
    f937:	48 89 c7             	mov    %rax,%rdi
    f93a:	e8 9d ec ff ff       	callq  e5dc <_ZN4llvm12DenormalModeC1Ev>
    f93f:	48 8b 45 e8          	mov    -0x18(%rbp),%rax
    f943:	c7 40 4c 00 00 00 00 	movl   $0x0,0x4c(%rax)
    f94a:	48 8b 45 e8          	mov    -0x18(%rbp),%rax
    f94e:	48 83 c0 50          	add    $0x50,%rax
    f952:	48 89 c7             	mov    %rax,%rdi
    f955:	e8 46 d7 ff ff       	callq  d0a0 <_ZN4llvm15MCTargetOptionsC1Ev@plt>
    f95a:	eb 1e                	jmp    f97a <_ZN4llvm13TargetOptionsC1Ev+0x2b4>
    f95c:	48 89 c3             	mov    %rax,%rbx
    f95f:	48 8b 45 e8          	mov    -0x18(%rbp),%rax
    f963:	48 83 c0 20          	add    $0x20,%rax
    f967:	48 89 c7             	mov    %rax,%rdi
    f96a:	e8 eb fc ff ff       	callq  f65a <_ZNSt10shared_ptrIN4llvm12MemoryBufferEED1Ev>
    f96f:	48 89 d8             	mov    %rbx,%rax
    f972:	48 89 c7             	mov    %rax,%rdi
    f975:	e8 06 de ff ff       	callq  d780 <_Unwind_Resume@plt>
    f97a:	48 8b 5d f8          	mov    -0x8(%rbp),%rbx
    f97e:	c9                   	leaveq 
    f97f:	c3                   	retq   

000000000000f980 <_ZNK4llvm13TargetMachine16createDataLayoutEv>:
    f980:	55                   	push   %rbp
    f981:	48 89 e5             	mov    %rsp,%rbp
    f984:	48 83 ec 10          	sub    $0x10,%rsp
    f988:	48 89 7d f8          	mov    %rdi,-0x8(%rbp)
    f98c:	48 89 75 f0          	mov    %rsi,-0x10(%rbp)
    f990:	48 8b 45 f0          	mov    -0x10(%rbp),%rax
    f994:	48 8d 50 10          	lea    0x10(%rax),%rdx
    f998:	48 8b 45 f8          	mov    -0x8(%rbp),%rax
    f99c:	48 89 d6             	mov    %rdx,%rsi
    f99f:	48 89 c7             	mov    %rax,%rdi
    f9a2:	e8 ab f3 ff ff       	callq  ed52 <_ZN4llvm10DataLayoutC1ERKS0_>
    f9a7:	48 8b 45 f8          	mov    -0x8(%rbp),%rax
    f9ab:	c9                   	leaveq 
    f9ac:	c3                   	retq   

000000000000f9ad <_ZSt3minImERKT_S2_S2_>:
    f9ad:	55                   	push   %rbp
    f9ae:	48 89 e5             	mov    %rsp,%rbp
    f9b1:	48 89 7d f8          	mov    %rdi,-0x8(%rbp)
    f9b5:	48 89 75 f0          	mov    %rsi,-0x10(%rbp)
    f9b9:	48 8b 45 f0          	mov    -0x10(%rbp),%rax
    f9bd:	48 8b 10             	mov    (%rax),%rdx
    f9c0:	48 8b 45 f8          	mov    -0x8(%rbp),%rax
    f9c4:	48 8b 00             	mov    (%rax),%rax
    f9c7:	48 39 c2             	cmp    %rax,%rdx
    f9ca:	73 06                	jae    f9d2 <_ZSt3minImERKT_S2_S2_+0x25>
    f9cc:	48 8b 45 f0          	mov    -0x10(%rbp),%rax
    f9d0:	eb 04                	jmp    f9d6 <_ZSt3minImERKT_S2_S2_+0x29>
    f9d2:	48 8b 45 f8          	mov    -0x8(%rbp),%rax
    f9d6:	5d                   	pop    %rbp
    f9d7:	c3                   	retq   

000000000000f9d8 <_ZN8antlrcpp3AnyC1ERS0_>:
    f9d8:	55                   	push   %rbp
    f9d9:	48 89 e5             	mov    %rsp,%rbp
    f9dc:	48 83 ec 10          	sub    $0x10,%rsp
    f9e0:	48 89 7d f8          	mov    %rdi,-0x8(%rbp)
    f9e4:	48 89 75 f0          	mov    %rsi,-0x10(%rbp)
    f9e8:	48 8b 05 a9 e5 02 00 	mov    0x2e5a9(%rip),%rax        # 3df98 <_ZTVN8antlrcpp3AnyE>
    f9ef:	48 8d 50 10          	lea    0x10(%rax),%rdx
    f9f3:	48 8b 45 f8          	mov    -0x8(%rbp),%rax
    f9f7:	48 89 10             	mov    %rdx,(%rax)
    f9fa:	48 8b 45 f0          	mov    -0x10(%rbp),%rax
    f9fe:	48 89 c7             	mov    %rax,%rdi
    fa01:	e8 dc 00 00 00       	callq  fae2 <_ZNK8antlrcpp3Any5cloneEv>
    fa06:	48 8b 55 f8          	mov    -0x8(%rbp),%rdx
    fa0a:	48 89 42 08          	mov    %rax,0x8(%rdx)
    fa0e:	90                   	nop
    fa0f:	c9                   	leaveq 
    fa10:	c3                   	retq   
    fa11:	90                   	nop

000000000000fa12 <_ZN8antlrcpp3AnyC1ERKS0_>:
    fa12:	55                   	push   %rbp
    fa13:	48 89 e5             	mov    %rsp,%rbp
    fa16:	48 83 ec 10          	sub    $0x10,%rsp
    fa1a:	48 89 7d f8          	mov    %rdi,-0x8(%rbp)
    fa1e:	48 89 75 f0          	mov    %rsi,-0x10(%rbp)
    fa22:	48 8b 05 6f e5 02 00 	mov    0x2e56f(%rip),%rax        # 3df98 <_ZTVN8antlrcpp3AnyE>
    fa29:	48 8d 50 10          	lea    0x10(%rax),%rdx
    fa2d:	48 8b 45 f8          	mov    -0x8(%rbp),%rax
    fa31:	48 89 10             	mov    %rdx,(%rax)
    fa34:	48 8b 45 f0          	mov    -0x10(%rbp),%rax
    fa38:	48 89 c7             	mov    %rax,%rdi
    fa3b:	e8 a2 00 00 00       	callq  fae2 <_ZNK8antlrcpp3Any5cloneEv>
    fa40:	48 8b 55 f8          	mov    -0x8(%rbp),%rdx
    fa44:	48 89 42 08          	mov    %rax,0x8(%rdx)
    fa48:	90                   	nop
    fa49:	c9                   	leaveq 
    fa4a:	c3                   	retq   
    fa4b:	90                   	nop

000000000000fa4c <_ZN8antlrcpp3AnyaSEOS0_>:
    fa4c:	55                   	push   %rbp
    fa4d:	48 89 e5             	mov    %rsp,%rbp
    fa50:	48 83 ec 10          	sub    $0x10,%rsp
    fa54:	48 89 7d f8          	mov    %rdi,-0x8(%rbp)
    fa58:	48 89 75 f0          	mov    %rsi,-0x10(%rbp)
    fa5c:	48 8b 45 f8          	mov    -0x8(%rbp),%rax
    fa60:	48 8b 50 08          	mov    0x8(%rax),%rdx
    fa64:	48 8b 45 f0          	mov    -0x10(%rbp),%rax
    fa68:	48 8b 40 08          	mov    0x8(%rax),%rax
    fa6c:	48 39 c2             	cmp    %rax,%rdx
    fa6f:	75 06                	jne    fa77 <_ZN8antlrcpp3AnyaSEOS0_+0x2b>
    fa71:	48 8b 45 f8          	mov    -0x8(%rbp),%rax
    fa75:	eb 1f                	jmp    fa96 <_ZN8antlrcpp3AnyaSEOS0_+0x4a>
    fa77:	48 8b 45 f0          	mov    -0x10(%rbp),%rax
    fa7b:	48 8d 50 08          	lea    0x8(%rax),%rdx
    fa7f:	48 8b 45 f8          	mov    -0x8(%rbp),%rax
    fa83:	48 83 c0 08          	add    $0x8,%rax
    fa87:	48 89 d6             	mov    %rdx,%rsi
    fa8a:	48 89 c7             	mov    %rax,%rdi
    fa8d:	e8 5a 1a 00 00       	callq  114ec <_ZSt4swapIPN8antlrcpp3Any4BaseEENSt9enable_ifIXsrSt6__and_IJSt6__not_ISt15__is_tuple_likeIT_EESt21is_move_constructibleIS8_ESt18is_move_assignableIS8_EEE5valueEvE4typeERS8_SI_>
    fa92:	48 8b 45 f8          	mov    -0x8(%rbp),%rax
    fa96:	c9                   	leaveq 
    fa97:	c3                   	retq   

000000000000fa98 <_ZN8antlrcpp3Any4BaseD1Ev>:
    fa98:	55                   	push   %rbp
    fa99:	48 89 e5             	mov    %rsp,%rbp
    fa9c:	48 89 7d f8          	mov    %rdi,-0x8(%rbp)
    faa0:	48 8d 05 21 d0 02 00 	lea    0x2d021(%rip),%rax        # 3cac8 <_ZTVN8antlrcpp3Any4BaseE>
    faa7:	48 8d 50 10          	lea    0x10(%rax),%rdx
    faab:	48 8b 45 f8          	mov    -0x8(%rbp),%rax
    faaf:	48 89 10             	mov    %rdx,(%rax)
    fab2:	90                   	nop
    fab3:	5d                   	pop    %rbp
    fab4:	c3                   	retq   
    fab5:	90                   	nop

000000000000fab6 <_ZN8antlrcpp3Any4BaseD0Ev>:
    fab6:	55                   	push   %rbp
    fab7:	48 89 e5             	mov    %rsp,%rbp
    faba:	48 83 ec 10          	sub    $0x10,%rsp
    fabe:	48 89 7d f8          	mov    %rdi,-0x8(%rbp)
    fac2:	48 8b 45 f8          	mov    -0x8(%rbp),%rax
    fac6:	48 89 c7             	mov    %rax,%rdi
    fac9:	e8 ca ff ff ff       	callq  fa98 <_ZN8antlrcpp3Any4BaseD1Ev>
    face:	48 8b 45 f8          	mov    -0x8(%rbp),%rax
    fad2:	be 08 00 00 00       	mov    $0x8,%esi
    fad7:	48 89 c7             	mov    %rax,%rdi
    fada:	e8 41 db ff ff       	callq  d620 <_ZdlPvm@plt>
    fadf:	c9                   	leaveq 
    fae0:	c3                   	retq   
    fae1:	90                   	nop

000000000000fae2 <_ZNK8antlrcpp3Any5cloneEv>:
    fae2:	55                   	push   %rbp
    fae3:	48 89 e5             	mov    %rsp,%rbp
    fae6:	48 83 ec 10          	sub    $0x10,%rsp
    faea:	48 89 7d f8          	mov    %rdi,-0x8(%rbp)
    faee:	48 8b 45 f8          	mov    -0x8(%rbp),%rax
    faf2:	48 8b 40 08          	mov    0x8(%rax),%rax
    faf6:	48 85 c0             	test   %rax,%rax
    faf9:	74 21                	je     fb1c <_ZNK8antlrcpp3Any5cloneEv+0x3a>
    fafb:	48 8b 45 f8          	mov    -0x8(%rbp),%rax
    faff:	48 8b 40 08          	mov    0x8(%rax),%rax
    fb03:	48 8b 55 f8          	mov    -0x8(%rbp),%rdx
    fb07:	48 8b 52 08          	mov    0x8(%rdx),%rdx
    fb0b:	48 8b 12             	mov    (%rdx),%rdx
    fb0e:	48 83 c2 10          	add    $0x10,%rdx
    fb12:	48 8b 12             	mov    (%rdx),%rdx
    fb15:	48 89 c7             	mov    %rax,%rdi
    fb18:	ff d2                	callq  *%rdx
    fb1a:	eb 05                	jmp    fb21 <_ZNK8antlrcpp3Any5cloneEv+0x3f>
    fb1c:	b8 00 00 00 00       	mov    $0x0,%eax
    fb21:	c9                   	leaveq 
    fb22:	c3                   	retq   
    fb23:	90                   	nop

000000000000fb24 <_ZN8antlrcpp3AnyC1IDnEEOT_>:
    fb24:	55                   	push   %rbp
    fb25:	48 89 e5             	mov    %rsp,%rbp
    fb28:	48 89 7d f8          	mov    %rdi,-0x8(%rbp)
    fb2c:	48 89 75 f0          	mov    %rsi,-0x10(%rbp)
    fb30:	48 8b 05 61 e4 02 00 	mov    0x2e461(%rip),%rax        # 3df98 <_ZTVN8antlrcpp3AnyE>
    fb37:	48 8d 50 10          	lea    0x10(%rax),%rdx
    fb3b:	48 8b 45 f8          	mov    -0x8(%rbp),%rax
    fb3f:	48 89 10             	mov    %rdx,(%rax)
    fb42:	48 8b 45 f8          	mov    -0x8(%rbp),%rax
    fb46:	48 c7 40 08 00 00 00 	movq   $0x0,0x8(%rax)
    fb4d:	00 
    fb4e:	90                   	nop
    fb4f:	5d                   	pop    %rbp
    fb50:	c3                   	retq   
    fb51:	90                   	nop

000000000000fb52 <_ZNSt12_Vector_baseINSt7__cxx1112basic_stringIcSt11char_traitsIcESaIcEEESaIS5_EE12_Vector_implD1Ev>:
    fb52:	55                   	push   %rbp
    fb53:	48 89 e5             	mov    %rsp,%rbp
    fb56:	48 83 ec 10          	sub    $0x10,%rsp
    fb5a:	48 89 7d f8          	mov    %rdi,-0x8(%rbp)
    fb5e:	48 8b 45 f8          	mov    -0x8(%rbp),%rax
    fb62:	48 89 c7             	mov    %rax,%rdi
    fb65:	e8 5c 1a 00 00       	callq  115c6 <_ZNSaINSt7__cxx1112basic_stringIcSt11char_traitsIcESaIcEEEED1Ev>
    fb6a:	90                   	nop
    fb6b:	c9                   	leaveq 
    fb6c:	c3                   	retq   
    fb6d:	90                   	nop

000000000000fb6e <_ZN6antlr44tree24AbstractParseTreeVisitor5visitEPNS0_9ParseTreeE>:
    fb6e:	55                   	push   %rbp
    fb6f:	48 89 e5             	mov    %rsp,%rbp
    fb72:	48 83 ec 30          	sub    $0x30,%rsp
    fb76:	48 89 7d e8          	mov    %rdi,-0x18(%rbp)
    fb7a:	48 89 75 e0          	mov    %rsi,-0x20(%rbp)
    fb7e:	48 89 55 d8          	mov    %rdx,-0x28(%rbp)
    fb82:	64 48 8b 04 25 28 00 	mov    %fs:0x28,%rax
    fb89:	00 00 
    fb8b:	48 89 45 f8          	mov    %rax,-0x8(%rbp)
    fb8f:	31 c0                	xor    %eax,%eax
    fb91:	48 8b 45 d8          	mov    -0x28(%rbp),%rax
    fb95:	48 8b 00             	mov    (%rax),%rax
    fb98:	48 83 c0 30          	add    $0x30,%rax
    fb9c:	4c 8b 00             	mov    (%rax),%r8
    fb9f:	48 8b 55 e0          	mov    -0x20(%rbp),%rdx
    fba3:	48 8b 45 e8          	mov    -0x18(%rbp),%rax
    fba7:	48 8b 4d d8          	mov    -0x28(%rbp),%rcx
    fbab:	48 89 ce             	mov    %rcx,%rsi
    fbae:	48 89 c7             	mov    %rax,%rdi
    fbb1:	41 ff d0             	callq  *%r8
    fbb4:	48 8b 45 f8          	mov    -0x8(%rbp),%rax
    fbb8:	64 48 2b 04 25 28 00 	sub    %fs:0x28,%rax
    fbbf:	00 00 
    fbc1:	74 05                	je     fbc8 <_ZN6antlr44tree24AbstractParseTreeVisitor5visitEPNS0_9ParseTreeE+0x5a>
    fbc3:	e8 f8 d4 ff ff       	callq  d0c0 <__stack_chk_fail@plt>
    fbc8:	48 8b 45 e8          	mov    -0x18(%rbp),%rax
    fbcc:	c9                   	leaveq 
    fbcd:	c3                   	retq   

000000000000fbce <_ZN6antlr44tree24AbstractParseTreeVisitor13visitChildrenEPNS0_9ParseTreeE>:
    fbce:	55                   	push   %rbp
    fbcf:	48 89 e5             	mov    %rsp,%rbp
    fbd2:	53                   	push   %rbx
    fbd3:	48 83 ec 78          	sub    $0x78,%rsp
    fbd7:	48 89 7d 98          	mov    %rdi,-0x68(%rbp)
    fbdb:	48 89 75 90          	mov    %rsi,-0x70(%rbp)
    fbdf:	48 89 55 88          	mov    %rdx,-0x78(%rbp)
    fbe3:	64 48 8b 04 25 28 00 	mov    %fs:0x28,%rax
    fbea:	00 00 
    fbec:	48 89 45 e8          	mov    %rax,-0x18(%rbp)
    fbf0:	31 c0                	xor    %eax,%eax
    fbf2:	48 8b 45 90          	mov    -0x70(%rbp),%rax
    fbf6:	48 8b 00             	mov    (%rax),%rax
    fbf9:	48 83 c0 30          	add    $0x30,%rax
    fbfd:	48 8b 08             	mov    (%rax),%rcx
    fc00:	48 8b 45 98          	mov    -0x68(%rbp),%rax
    fc04:	48 8b 55 90          	mov    -0x70(%rbp),%rdx
    fc08:	48 89 d6             	mov    %rdx,%rsi
    fc0b:	48 89 c7             	mov    %rax,%rdi
    fc0e:	ff d1                	callq  *%rcx
    fc10:	48 8b 45 88          	mov    -0x78(%rbp),%rax
    fc14:	48 83 c0 10          	add    $0x10,%rax
    fc18:	48 89 c7             	mov    %rax,%rdi
    fc1b:	e8 10 1a 00 00       	callq  11630 <_ZNKSt6vectorIPN6antlr44tree9ParseTreeESaIS3_EE4sizeEv>
    fc20:	48 89 45 a8          	mov    %rax,-0x58(%rbp)
    fc24:	48 c7 45 a0 00 00 00 	movq   $0x0,-0x60(%rbp)
    fc2b:	00 
    fc2c:	48 8b 45 a0          	mov    -0x60(%rbp),%rax
    fc30:	48 3b 45 a8          	cmp    -0x58(%rbp),%rax
    fc34:	0f 83 18 01 00 00    	jae    fd52 <_ZN6antlr44tree24AbstractParseTreeVisitor13visitChildrenEPNS0_9ParseTreeE+0x184>
    fc3a:	48 8b 45 90          	mov    -0x70(%rbp),%rax
    fc3e:	48 8b 00             	mov    (%rax),%rax
    fc41:	48 83 c0 40          	add    $0x40,%rax
    fc45:	4c 8b 00             	mov    (%rax),%r8
    fc48:	48 8b 55 98          	mov    -0x68(%rbp),%rdx
    fc4c:	48 8b 4d 88          	mov    -0x78(%rbp),%rcx
    fc50:	48 8b 45 90          	mov    -0x70(%rbp),%rax
    fc54:	48 89 ce             	mov    %rcx,%rsi
    fc57:	48 89 c7             	mov    %rax,%rdi
    fc5a:	41 ff d0             	callq  *%r8
    fc5d:	83 f0 01             	xor    $0x1,%eax
    fc60:	84 c0                	test   %al,%al
    fc62:	74 06                	je     fc6a <_ZN6antlr44tree24AbstractParseTreeVisitor13visitChildrenEPNS0_9ParseTreeE+0x9c>
    fc64:	90                   	nop
    fc65:	e9 e8 00 00 00       	jmpq   fd52 <_ZN6antlr44tree24AbstractParseTreeVisitor13visitChildrenEPNS0_9ParseTreeE+0x184>
    fc6a:	48 8b 45 88          	mov    -0x78(%rbp),%rax
    fc6e:	48 8d 50 10          	lea    0x10(%rax),%rdx
    fc72:	48 8b 45 a0          	mov    -0x60(%rbp),%rax
    fc76:	48 89 c6             	mov    %rax,%rsi
    fc79:	48 89 d7             	mov    %rdx,%rdi
    fc7c:	e8 d3 19 00 00       	callq  11654 <_ZNSt6vectorIPN6antlr44tree9ParseTreeESaIS3_EEixEm>
    fc81:	48 8b 00             	mov    (%rax),%rax
    fc84:	48 8b 10             	mov    (%rax),%rdx
    fc87:	48 83 c2 30          	add    $0x30,%rdx
    fc8b:	4c 8b 02             	mov    (%rdx),%r8
    fc8e:	48 8b 55 90          	mov    -0x70(%rbp),%rdx
    fc92:	48 8d 4d b0          	lea    -0x50(%rbp),%rcx
    fc96:	48 89 c6             	mov    %rax,%rsi
    fc99:	48 89 cf             	mov    %rcx,%rdi
    fc9c:	41 ff d0             	callq  *%r8
    fc9f:	48 8b 45 90          	mov    -0x70(%rbp),%rax
    fca3:	48 8b 00             	mov    (%rax),%rax
    fca6:	48 83 c0 38          	add    $0x38,%rax
    fcaa:	48 8b 18             	mov    (%rax),%rbx
    fcad:	48 8b 55 98          	mov    -0x68(%rbp),%rdx
    fcb1:	48 8d 45 c0          	lea    -0x40(%rbp),%rax
    fcb5:	48 89 d6             	mov    %rdx,%rsi
    fcb8:	48 89 c7             	mov    %rax,%rdi
    fcbb:	e8 18 fd ff ff       	callq  f9d8 <_ZN8antlrcpp3AnyC1ERS0_>
    fcc0:	48 8d 45 d0          	lea    -0x30(%rbp),%rax
    fcc4:	48 8d 4d b0          	lea    -0x50(%rbp),%rcx
    fcc8:	48 8d 55 c0          	lea    -0x40(%rbp),%rdx
    fccc:	48 8b 75 90          	mov    -0x70(%rbp),%rsi
    fcd0:	48 89 c7             	mov    %rax,%rdi
    fcd3:	ff d3                	callq  *%rbx
    fcd5:	48 8d 55 d0          	lea    -0x30(%rbp),%rdx
    fcd9:	48 8b 45 98          	mov    -0x68(%rbp),%rax
    fcdd:	48 89 d6             	mov    %rdx,%rsi
    fce0:	48 89 c7             	mov    %rax,%rdi
    fce3:	e8 64 fd ff ff       	callq  fa4c <_ZN8antlrcpp3AnyaSEOS0_>
    fce8:	48 8d 45 d0          	lea    -0x30(%rbp),%rax
    fcec:	48 89 c7             	mov    %rax,%rdi
    fcef:	e8 2c da ff ff       	callq  d720 <_ZN8antlrcpp3AnyD1Ev@plt>
    fcf4:	48 8d 45 c0          	lea    -0x40(%rbp),%rax
    fcf8:	48 89 c7             	mov    %rax,%rdi
    fcfb:	e8 20 da ff ff       	callq  d720 <_ZN8antlrcpp3AnyD1Ev@plt>
    fd00:	48 8d 45 b0          	lea    -0x50(%rbp),%rax
    fd04:	48 89 c7             	mov    %rax,%rdi
    fd07:	e8 14 da ff ff       	callq  d720 <_ZN8antlrcpp3AnyD1Ev@plt>
    fd0c:	48 83 45 a0 01       	addq   $0x1,-0x60(%rbp)
    fd11:	e9 16 ff ff ff       	jmpq   fc2c <_ZN6antlr44tree24AbstractParseTreeVisitor13visitChildrenEPNS0_9ParseTreeE+0x5e>
    fd16:	48 89 c3             	mov    %rax,%rbx
    fd19:	48 8d 45 c0          	lea    -0x40(%rbp),%rax
    fd1d:	48 89 c7             	mov    %rax,%rdi
    fd20:	e8 fb d9 ff ff       	callq  d720 <_ZN8antlrcpp3AnyD1Ev@plt>
    fd25:	eb 03                	jmp    fd2a <_ZN6antlr44tree24AbstractParseTreeVisitor13visitChildrenEPNS0_9ParseTreeE+0x15c>
    fd27:	48 89 c3             	mov    %rax,%rbx
    fd2a:	48 8d 45 b0          	lea    -0x50(%rbp),%rax
    fd2e:	48 89 c7             	mov    %rax,%rdi
    fd31:	e8 ea d9 ff ff       	callq  d720 <_ZN8antlrcpp3AnyD1Ev@plt>
    fd36:	eb 03                	jmp    fd3b <_ZN6antlr44tree24AbstractParseTreeVisitor13visitChildrenEPNS0_9ParseTreeE+0x16d>
    fd38:	48 89 c3             	mov    %rax,%rbx
    fd3b:	48 8b 45 98          	mov    -0x68(%rbp),%rax
    fd3f:	48 89 c7             	mov    %rax,%rdi
    fd42:	e8 d9 d9 ff ff       	callq  d720 <_ZN8antlrcpp3AnyD1Ev@plt>
    fd47:	48 89 d8             	mov    %rbx,%rax
    fd4a:	48 89 c7             	mov    %rax,%rdi
    fd4d:	e8 2e da ff ff       	callq  d780 <_Unwind_Resume@plt>
    fd52:	90                   	nop
    fd53:	48 8b 45 e8          	mov    -0x18(%rbp),%rax
    fd57:	64 48 2b 04 25 28 00 	sub    %fs:0x28,%rax
    fd5e:	00 00 
    fd60:	74 05                	je     fd67 <_ZN6antlr44tree24AbstractParseTreeVisitor13visitChildrenEPNS0_9ParseTreeE+0x199>
    fd62:	e8 59 d3 ff ff       	callq  d0c0 <__stack_chk_fail@plt>
    fd67:	48 8b 45 98          	mov    -0x68(%rbp),%rax
    fd6b:	48 8b 5d f8          	mov    -0x8(%rbp),%rbx
    fd6f:	c9                   	leaveq 
    fd70:	c3                   	retq   
    fd71:	90                   	nop

000000000000fd72 <_ZN6antlr44tree24AbstractParseTreeVisitor13visitTerminalEPNS0_12TerminalNodeE>:
    fd72:	55                   	push   %rbp
    fd73:	48 89 e5             	mov    %rsp,%rbp
    fd76:	48 83 ec 30          	sub    $0x30,%rsp
    fd7a:	48 89 7d e8          	mov    %rdi,-0x18(%rbp)
    fd7e:	48 89 75 e0          	mov    %rsi,-0x20(%rbp)
    fd82:	48 89 55 d8          	mov    %rdx,-0x28(%rbp)
    fd86:	64 48 8b 04 25 28 00 	mov    %fs:0x28,%rax
    fd8d:	00 00 
    fd8f:	48 89 45 f8          	mov    %rax,-0x8(%rbp)
    fd93:	31 c0                	xor    %eax,%eax
    fd95:	48 8b 45 e0          	mov    -0x20(%rbp),%rax
    fd99:	48 8b 00             	mov    (%rax),%rax
    fd9c:	48 83 c0 30          	add    $0x30,%rax
    fda0:	48 8b 08             	mov    (%rax),%rcx
    fda3:	48 8b 45 e8          	mov    -0x18(%rbp),%rax
    fda7:	48 8b 55 e0          	mov    -0x20(%rbp),%rdx
    fdab:	48 89 d6             	mov    %rdx,%rsi
    fdae:	48 89 c7             	mov    %rax,%rdi
    fdb1:	ff d1                	callq  *%rcx
    fdb3:	48 8b 45 f8          	mov    -0x8(%rbp),%rax
    fdb7:	64 48 2b 04 25 28 00 	sub    %fs:0x28,%rax
    fdbe:	00 00 
    fdc0:	74 05                	je     fdc7 <_ZN6antlr44tree24AbstractParseTreeVisitor13visitTerminalEPNS0_12TerminalNodeE+0x55>
    fdc2:	e8 f9 d2 ff ff       	callq  d0c0 <__stack_chk_fail@plt>
    fdc7:	48 8b 45 e8          	mov    -0x18(%rbp),%rax
    fdcb:	c9                   	leaveq 
    fdcc:	c3                   	retq   
    fdcd:	90                   	nop

000000000000fdce <_ZN6antlr44tree24AbstractParseTreeVisitor14visitErrorNodeEPNS0_9ErrorNodeE>:
    fdce:	55                   	push   %rbp
    fdcf:	48 89 e5             	mov    %rsp,%rbp
    fdd2:	48 83 ec 30          	sub    $0x30,%rsp
    fdd6:	48 89 7d e8          	mov    %rdi,-0x18(%rbp)
    fdda:	48 89 75 e0          	mov    %rsi,-0x20(%rbp)
    fdde:	48 89 55 d8          	mov    %rdx,-0x28(%rbp)
    fde2:	64 48 8b 04 25 28 00 	mov    %fs:0x28,%rax
    fde9:	00 00 
    fdeb:	48 89 45 f8          	mov    %rax,-0x8(%rbp)
    fdef:	31 c0                	xor    %eax,%eax
    fdf1:	48 8b 45 e0          	mov    -0x20(%rbp),%rax
    fdf5:	48 8b 00             	mov    (%rax),%rax
    fdf8:	48 83 c0 30          	add    $0x30,%rax
    fdfc:	48 8b 08             	mov    (%rax),%rcx
    fdff:	48 8b 45 e8          	mov    -0x18(%rbp),%rax
    fe03:	48 8b 55 e0          	mov    -0x20(%rbp),%rdx
    fe07:	48 89 d6             	mov    %rdx,%rsi
    fe0a:	48 89 c7             	mov    %rax,%rdi
    fe0d:	ff d1                	callq  *%rcx
    fe0f:	48 8b 45 f8          	mov    -0x8(%rbp),%rax
    fe13:	64 48 2b 04 25 28 00 	sub    %fs:0x28,%rax
    fe1a:	00 00 
    fe1c:	74 05                	je     fe23 <_ZN6antlr44tree24AbstractParseTreeVisitor14visitErrorNodeEPNS0_9ErrorNodeE+0x55>
    fe1e:	e8 9d d2 ff ff       	callq  d0c0 <__stack_chk_fail@plt>
    fe23:	48 8b 45 e8          	mov    -0x18(%rbp),%rax
    fe27:	c9                   	leaveq 
    fe28:	c3                   	retq   
    fe29:	90                   	nop

000000000000fe2a <_ZN6antlr44tree24AbstractParseTreeVisitor13defaultResultEv>:
    fe2a:	55                   	push   %rbp
    fe2b:	48 89 e5             	mov    %rsp,%rbp
    fe2e:	48 83 ec 20          	sub    $0x20,%rsp
    fe32:	48 89 7d e8          	mov    %rdi,-0x18(%rbp)
    fe36:	48 89 75 e0          	mov    %rsi,-0x20(%rbp)
    fe3a:	64 48 8b 04 25 28 00 	mov    %fs:0x28,%rax
    fe41:	00 00 
    fe43:	48 89 45 f8          	mov    %rax,-0x8(%rbp)
    fe47:	31 c0                	xor    %eax,%eax
    fe49:	48 c7 45 f0 00 00 00 	movq   $0x0,-0x10(%rbp)
    fe50:	00 
    fe51:	48 8d 55 f0          	lea    -0x10(%rbp),%rdx
    fe55:	48 8b 45 e8          	mov    -0x18(%rbp),%rax
    fe59:	48 89 d6             	mov    %rdx,%rsi
    fe5c:	48 89 c7             	mov    %rax,%rdi
    fe5f:	e8 c0 fc ff ff       	callq  fb24 <_ZN8antlrcpp3AnyC1IDnEEOT_>
    fe64:	48 8b 45 f8          	mov    -0x8(%rbp),%rax
    fe68:	64 48 2b 04 25 28 00 	sub    %fs:0x28,%rax
    fe6f:	00 00 
    fe71:	74 05                	je     fe78 <_ZN6antlr44tree24AbstractParseTreeVisitor13defaultResultEv+0x4e>
    fe73:	e8 48 d2 ff ff       	callq  d0c0 <__stack_chk_fail@plt>
    fe78:	48 8b 45 e8          	mov    -0x18(%rbp),%rax
    fe7c:	c9                   	leaveq 
    fe7d:	c3                   	retq   

000000000000fe7e <_ZN6antlr44tree24AbstractParseTreeVisitor15aggregateResultEN8antlrcpp3AnyERKS3_>:
    fe7e:	55                   	push   %rbp
    fe7f:	48 89 e5             	mov    %rsp,%rbp
    fe82:	48 83 ec 20          	sub    $0x20,%rsp
    fe86:	48 89 7d f8          	mov    %rdi,-0x8(%rbp)
    fe8a:	48 89 75 f0          	mov    %rsi,-0x10(%rbp)
    fe8e:	48 89 55 e8          	mov    %rdx,-0x18(%rbp)
    fe92:	48 89 4d e0          	mov    %rcx,-0x20(%rbp)
    fe96:	48 8b 55 e0          	mov    -0x20(%rbp),%rdx
    fe9a:	48 8b 45 f8          	mov    -0x8(%rbp),%rax
    fe9e:	48 89 d6             	mov    %rdx,%rsi
    fea1:	48 89 c7             	mov    %rax,%rdi
    fea4:	e8 69 fb ff ff       	callq  fa12 <_ZN8antlrcpp3AnyC1ERKS0_>
    fea9:	48 8b 45 f8          	mov    -0x8(%rbp),%rax
    fead:	c9                   	leaveq 
    feae:	c3                   	retq   
    feaf:	90                   	nop

000000000000feb0 <_ZN6antlr44tree24AbstractParseTreeVisitor20shouldVisitNextChildEPNS0_9ParseTreeERKN8antlrcpp3AnyE>:
    feb0:	55                   	push   %rbp
    feb1:	48 89 e5             	mov    %rsp,%rbp
    feb4:	48 89 7d f8          	mov    %rdi,-0x8(%rbp)
    feb8:	48 89 75 f0          	mov    %rsi,-0x10(%rbp)
    febc:	48 89 55 e8          	mov    %rdx,-0x18(%rbp)
    fec0:	b8 01 00 00 00       	mov    $0x1,%eax
    fec5:	5d                   	pop    %rbp
    fec6:	c3                   	retq   
    fec7:	90                   	nop

000000000000fec8 <_ZN13dzBaseVisitor12visitProgramEPN8dzParser14ProgramContextE>:
    fec8:	55                   	push   %rbp
    fec9:	48 89 e5             	mov    %rsp,%rbp
    fecc:	48 83 ec 30          	sub    $0x30,%rsp
    fed0:	48 89 7d e8          	mov    %rdi,-0x18(%rbp)
    fed4:	48 89 75 e0          	mov    %rsi,-0x20(%rbp)
    fed8:	48 89 55 d8          	mov    %rdx,-0x28(%rbp)
    fedc:	64 48 8b 04 25 28 00 	mov    %fs:0x28,%rax
    fee3:	00 00 
    fee5:	48 89 45 f8          	mov    %rax,-0x8(%rbp)
    fee9:	31 c0                	xor    %eax,%eax
    feeb:	48 8b 4d e0          	mov    -0x20(%rbp),%rcx
    feef:	48 8b 45 e0          	mov    -0x20(%rbp),%rax
    fef3:	48 8b 00             	mov    (%rax),%rax
    fef6:	48 83 c0 18          	add    $0x18,%rax
    fefa:	4c 8b 00             	mov    (%rax),%r8
    fefd:	48 8b 45 e8          	mov    -0x18(%rbp),%rax
    ff01:	48 8b 55 d8          	mov    -0x28(%rbp),%rdx
    ff05:	48 89 ce             	mov    %rcx,%rsi
    ff08:	48 89 c7             	mov    %rax,%rdi
    ff0b:	41 ff d0             	callq  *%r8
    ff0e:	48 8b 45 f8          	mov    -0x8(%rbp),%rax
    ff12:	64 48 2b 04 25 28 00 	sub    %fs:0x28,%rax
    ff19:	00 00 
    ff1b:	74 05                	je     ff22 <_ZN13dzBaseVisitor12visitProgramEPN8dzParser14ProgramContextE+0x5a>
    ff1d:	e8 9e d1 ff ff       	callq  d0c0 <__stack_chk_fail@plt>
    ff22:	48 8b 45 e8          	mov    -0x18(%rbp),%rax
    ff26:	c9                   	leaveq 
    ff27:	c3                   	retq   

000000000000ff28 <_ZN13dzBaseVisitor13visitFunctionEPN8dzParser15FunctionContextE>:
    ff28:	55                   	push   %rbp
    ff29:	48 89 e5             	mov    %rsp,%rbp
    ff2c:	48 83 ec 30          	sub    $0x30,%rsp
    ff30:	48 89 7d e8          	mov    %rdi,-0x18(%rbp)
    ff34:	48 89 75 e0          	mov    %rsi,-0x20(%rbp)
    ff38:	48 89 55 d8          	mov    %rdx,-0x28(%rbp)
    ff3c:	64 48 8b 04 25 28 00 	mov    %fs:0x28,%rax
    ff43:	00 00 
    ff45:	48 89 45 f8          	mov    %rax,-0x8(%rbp)
    ff49:	31 c0                	xor    %eax,%eax
    ff4b:	48 8b 4d e0          	mov    -0x20(%rbp),%rcx
    ff4f:	48 8b 45 e0          	mov    -0x20(%rbp),%rax
    ff53:	48 8b 00             	mov    (%rax),%rax
    ff56:	48 83 c0 18          	add    $0x18,%rax
    ff5a:	4c 8b 00             	mov    (%rax),%r8
    ff5d:	48 8b 45 e8          	mov    -0x18(%rbp),%rax
    ff61:	48 8b 55 d8          	mov    -0x28(%rbp),%rdx
    ff65:	48 89 ce             	mov    %rcx,%rsi
    ff68:	48 89 c7             	mov    %rax,%rdi
    ff6b:	41 ff d0             	callq  *%r8
    ff6e:	48 8b 45 f8          	mov    -0x8(%rbp),%rax
    ff72:	64 48 2b 04 25 28 00 	sub    %fs:0x28,%rax
    ff79:	00 00 
    ff7b:	74 05                	je     ff82 <_ZN13dzBaseVisitor13visitFunctionEPN8dzParser15FunctionContextE+0x5a>
    ff7d:	e8 3e d1 ff ff       	callq  d0c0 <__stack_chk_fail@plt>
    ff82:	48 8b 45 e8          	mov    -0x18(%rbp),%rax
    ff86:	c9                   	leaveq 
    ff87:	c3                   	retq   

000000000000ff88 <_ZN13dzBaseVisitor15visitExpressionEPN8dzParser17ExpressionContextE>:
    ff88:	55                   	push   %rbp
    ff89:	48 89 e5             	mov    %rsp,%rbp
    ff8c:	48 83 ec 30          	sub    $0x30,%rsp
    ff90:	48 89 7d e8          	mov    %rdi,-0x18(%rbp)
    ff94:	48 89 75 e0          	mov    %rsi,-0x20(%rbp)
    ff98:	48 89 55 d8          	mov    %rdx,-0x28(%rbp)
    ff9c:	64 48 8b 04 25 28 00 	mov    %fs:0x28,%rax
    ffa3:	00 00 
    ffa5:	48 89 45 f8          	mov    %rax,-0x8(%rbp)
    ffa9:	31 c0                	xor    %eax,%eax
    ffab:	48 8b 4d e0          	mov    -0x20(%rbp),%rcx
    ffaf:	48 8b 45 e0          	mov    -0x20(%rbp),%rax
    ffb3:	48 8b 00             	mov    (%rax),%rax
    ffb6:	48 83 c0 18          	add    $0x18,%rax
    ffba:	4c 8b 00             	mov    (%rax),%r8
    ffbd:	48 8b 45 e8          	mov    -0x18(%rbp),%rax
    ffc1:	48 8b 55 d8          	mov    -0x28(%rbp),%rdx
    ffc5:	48 89 ce             	mov    %rcx,%rsi
    ffc8:	48 89 c7             	mov    %rax,%rdi
    ffcb:	41 ff d0             	callq  *%r8
    ffce:	48 8b 45 f8          	mov    -0x8(%rbp),%rax
    ffd2:	64 48 2b 04 25 28 00 	sub    %fs:0x28,%rax
    ffd9:	00 00 
    ffdb:	74 05                	je     ffe2 <_ZN13dzBaseVisitor15visitExpressionEPN8dzParser17ExpressionContextE+0x5a>
    ffdd:	e8 de d0 ff ff       	callq  d0c0 <__stack_chk_fail@plt>
    ffe2:	48 8b 45 e8          	mov    -0x18(%rbp),%rax
    ffe6:	c9                   	leaveq 
    ffe7:	c3                   	retq   

000000000000ffe8 <_ZN13dzBaseVisitor11visitMemberEPN8dzParser13MemberContextE>:
    ffe8:	55                   	push   %rbp
    ffe9:	48 89 e5             	mov    %rsp,%rbp
    ffec:	48 83 ec 30          	sub    $0x30,%rsp
    fff0:	48 89 7d e8          	mov    %rdi,-0x18(%rbp)
    fff4:	48 89 75 e0          	mov    %rsi,-0x20(%rbp)
    fff8:	48 89 55 d8          	mov    %rdx,-0x28(%rbp)
    fffc:	64 48 8b 04 25 28 00 	mov    %fs:0x28,%rax
   10003:	00 00 
   10005:	48 89 45 f8          	mov    %rax,-0x8(%rbp)
   10009:	31 c0                	xor    %eax,%eax
   1000b:	48 8b 4d e0          	mov    -0x20(%rbp),%rcx
   1000f:	48 8b 45 e0          	mov    -0x20(%rbp),%rax
   10013:	48 8b 00             	mov    (%rax),%rax
   10016:	48 83 c0 18          	add    $0x18,%rax
   1001a:	4c 8b 00             	mov    (%rax),%r8
   1001d:	48 8b 45 e8          	mov    -0x18(%rbp),%rax
   10021:	48 8b 55 d8          	mov    -0x28(%rbp),%rdx
   10025:	48 89 ce             	mov    %rcx,%rsi
   10028:	48 89 c7             	mov    %rax,%rdi
   1002b:	41 ff d0             	callq  *%r8
   1002e:	48 8b 45 f8          	mov    -0x8(%rbp),%rax
   10032:	64 48 2b 04 25 28 00 	sub    %fs:0x28,%rax
   10039:	00 00 
   1003b:	74 05                	je     10042 <_ZN13dzBaseVisitor11visitMemberEPN8dzParser13MemberContextE+0x5a>
   1003d:	e8 7e d0 ff ff       	callq  d0c0 <__stack_chk_fail@plt>
   10042:	48 8b 45 e8          	mov    -0x18(%rbp),%rax
   10046:	c9                   	leaveq 
   10047:	c3                   	retq   

0000000000010048 <_ZN13dzBaseVisitor8visitRetEPN8dzParser10RetContextE>:
   10048:	55                   	push   %rbp
   10049:	48 89 e5             	mov    %rsp,%rbp
   1004c:	48 83 ec 30          	sub    $0x30,%rsp
   10050:	48 89 7d e8          	mov    %rdi,-0x18(%rbp)
   10054:	48 89 75 e0          	mov    %rsi,-0x20(%rbp)
   10058:	48 89 55 d8          	mov    %rdx,-0x28(%rbp)
   1005c:	64 48 8b 04 25 28 00 	mov    %fs:0x28,%rax
   10063:	00 00 
   10065:	48 89 45 f8          	mov    %rax,-0x8(%rbp)
   10069:	31 c0                	xor    %eax,%eax
   1006b:	48 8b 4d e0          	mov    -0x20(%rbp),%rcx
   1006f:	48 8b 45 e0          	mov    -0x20(%rbp),%rax
   10073:	48 8b 00             	mov    (%rax),%rax
   10076:	48 83 c0 18          	add    $0x18,%rax
   1007a:	4c 8b 00             	mov    (%rax),%r8
   1007d:	48 8b 45 e8          	mov    -0x18(%rbp),%rax
   10081:	48 8b 55 d8          	mov    -0x28(%rbp),%rdx
   10085:	48 89 ce             	mov    %rcx,%rsi
   10088:	48 89 c7             	mov    %rax,%rdi
   1008b:	41 ff d0             	callq  *%r8
   1008e:	48 8b 45 f8          	mov    -0x8(%rbp),%rax
   10092:	64 48 2b 04 25 28 00 	sub    %fs:0x28,%rax
   10099:	00 00 
   1009b:	74 05                	je     100a2 <_ZN13dzBaseVisitor8visitRetEPN8dzParser10RetContextE+0x5a>
   1009d:	e8 1e d0 ff ff       	callq  d0c0 <__stack_chk_fail@plt>
   100a2:	48 8b 45 e8          	mov    -0x18(%rbp),%rax
   100a6:	c9                   	leaveq 
   100a7:	c3                   	retq   

00000000000100a8 <_ZN13dzBaseVisitor15visitAssignmentEPN8dzParser17AssignmentContextE>:
   100a8:	55                   	push   %rbp
   100a9:	48 89 e5             	mov    %rsp,%rbp
   100ac:	48 83 ec 30          	sub    $0x30,%rsp
   100b0:	48 89 7d e8          	mov    %rdi,-0x18(%rbp)
   100b4:	48 89 75 e0          	mov    %rsi,-0x20(%rbp)
   100b8:	48 89 55 d8          	mov    %rdx,-0x28(%rbp)
   100bc:	64 48 8b 04 25 28 00 	mov    %fs:0x28,%rax
   100c3:	00 00 
   100c5:	48 89 45 f8          	mov    %rax,-0x8(%rbp)
   100c9:	31 c0                	xor    %eax,%eax
   100cb:	48 8b 4d e0          	mov    -0x20(%rbp),%rcx
   100cf:	48 8b 45 e0          	mov    -0x20(%rbp),%rax
   100d3:	48 8b 00             	mov    (%rax),%rax
   100d6:	48 83 c0 18          	add    $0x18,%rax
   100da:	4c 8b 00             	mov    (%rax),%r8
   100dd:	48 8b 45 e8          	mov    -0x18(%rbp),%rax
   100e1:	48 8b 55 d8          	mov    -0x28(%rbp),%rdx
   100e5:	48 89 ce             	mov    %rcx,%rsi
   100e8:	48 89 c7             	mov    %rax,%rdi
   100eb:	41 ff d0             	callq  *%r8
   100ee:	48 8b 45 f8          	mov    -0x8(%rbp),%rax
   100f2:	64 48 2b 04 25 28 00 	sub    %fs:0x28,%rax
   100f9:	00 00 
   100fb:	74 05                	je     10102 <_ZN13dzBaseVisitor15visitAssignmentEPN8dzParser17AssignmentContextE+0x5a>
   100fd:	e8 be cf ff ff       	callq  d0c0 <__stack_chk_fail@plt>
   10102:	48 8b 45 e8          	mov    -0x18(%rbp),%rax
   10106:	c9                   	leaveq 
   10107:	c3                   	retq   

0000000000010108 <_ZN13dzBaseVisitor9visitCallEPN8dzParser11CallContextE>:
   10108:	55                   	push   %rbp
   10109:	48 89 e5             	mov    %rsp,%rbp
   1010c:	48 83 ec 30          	sub    $0x30,%rsp
   10110:	48 89 7d e8          	mov    %rdi,-0x18(%rbp)
   10114:	48 89 75 e0          	mov    %rsi,-0x20(%rbp)
   10118:	48 89 55 d8          	mov    %rdx,-0x28(%rbp)
   1011c:	64 48 8b 04 25 28 00 	mov    %fs:0x28,%rax
   10123:	00 00 
   10125:	48 89 45 f8          	mov    %rax,-0x8(%rbp)
   10129:	31 c0                	xor    %eax,%eax
   1012b:	48 8b 4d e0          	mov    -0x20(%rbp),%rcx
   1012f:	48 8b 45 e0          	mov    -0x20(%rbp),%rax
   10133:	48 8b 00             	mov    (%rax),%rax
   10136:	48 83 c0 18          	add    $0x18,%rax
   1013a:	4c 8b 00             	mov    (%rax),%r8
   1013d:	48 8b 45 e8          	mov    -0x18(%rbp),%rax
   10141:	48 8b 55 d8          	mov    -0x28(%rbp),%rdx
   10145:	48 89 ce             	mov    %rcx,%rsi
   10148:	48 89 c7             	mov    %rax,%rdi
   1014b:	41 ff d0             	callq  *%r8
   1014e:	48 8b 45 f8          	mov    -0x8(%rbp),%rax
   10152:	64 48 2b 04 25 28 00 	sub    %fs:0x28,%rax
   10159:	00 00 
   1015b:	74 05                	je     10162 <_ZN13dzBaseVisitor9visitCallEPN8dzParser11CallContextE+0x5a>
   1015d:	e8 5e cf ff ff       	callq  d0c0 <__stack_chk_fail@plt>
   10162:	48 8b 45 e8          	mov    -0x18(%rbp),%rax
   10166:	c9                   	leaveq 
   10167:	c3                   	retq   

0000000000010168 <_ZN13dzBaseVisitor16visitConditionalEPN8dzParser18ConditionalContextE>:
   10168:	55                   	push   %rbp
   10169:	48 89 e5             	mov    %rsp,%rbp
   1016c:	48 83 ec 30          	sub    $0x30,%rsp
   10170:	48 89 7d e8          	mov    %rdi,-0x18(%rbp)
   10174:	48 89 75 e0          	mov    %rsi,-0x20(%rbp)
   10178:	48 89 55 d8          	mov    %rdx,-0x28(%rbp)
   1017c:	64 48 8b 04 25 28 00 	mov    %fs:0x28,%rax
   10183:	00 00 
   10185:	48 89 45 f8          	mov    %rax,-0x8(%rbp)
   10189:	31 c0                	xor    %eax,%eax
   1018b:	48 8b 4d e0          	mov    -0x20(%rbp),%rcx
   1018f:	48 8b 45 e0          	mov    -0x20(%rbp),%rax
   10193:	48 8b 00             	mov    (%rax),%rax
   10196:	48 83 c0 18          	add    $0x18,%rax
   1019a:	4c 8b 00             	mov    (%rax),%r8
   1019d:	48 8b 45 e8          	mov    -0x18(%rbp),%rax
   101a1:	48 8b 55 d8          	mov    -0x28(%rbp),%rdx
   101a5:	48 89 ce             	mov    %rcx,%rsi
   101a8:	48 89 c7             	mov    %rax,%rdi
   101ab:	41 ff d0             	callq  *%r8
   101ae:	48 8b 45 f8          	mov    -0x8(%rbp),%rax
   101b2:	64 48 2b 04 25 28 00 	sub    %fs:0x28,%rax
   101b9:	00 00 
   101bb:	74 05                	je     101c2 <_ZN13dzBaseVisitor16visitConditionalEPN8dzParser18ConditionalContextE+0x5a>
   101bd:	e8 fe ce ff ff       	callq  d0c0 <__stack_chk_fail@plt>
   101c2:	48 8b 45 e8          	mov    -0x18(%rbp),%rax
   101c6:	c9                   	leaveq 
   101c7:	c3                   	retq   

00000000000101c8 <_ZN13dzBaseVisitor10visitBlockEPN8dzParser12BlockContextE>:
   101c8:	55                   	push   %rbp
   101c9:	48 89 e5             	mov    %rsp,%rbp
   101cc:	48 83 ec 30          	sub    $0x30,%rsp
   101d0:	48 89 7d e8          	mov    %rdi,-0x18(%rbp)
   101d4:	48 89 75 e0          	mov    %rsi,-0x20(%rbp)
   101d8:	48 89 55 d8          	mov    %rdx,-0x28(%rbp)
   101dc:	64 48 8b 04 25 28 00 	mov    %fs:0x28,%rax
   101e3:	00 00 
   101e5:	48 89 45 f8          	mov    %rax,-0x8(%rbp)
   101e9:	31 c0                	xor    %eax,%eax
   101eb:	48 8b 4d e0          	mov    -0x20(%rbp),%rcx
   101ef:	48 8b 45 e0          	mov    -0x20(%rbp),%rax
   101f3:	48 8b 00             	mov    (%rax),%rax
   101f6:	48 83 c0 18          	add    $0x18,%rax
   101fa:	4c 8b 00             	mov    (%rax),%r8
   101fd:	48 8b 45 e8          	mov    -0x18(%rbp),%rax
   10201:	48 8b 55 d8          	mov    -0x28(%rbp),%rdx
   10205:	48 89 ce             	mov    %rcx,%rsi
   10208:	48 89 c7             	mov    %rax,%rdi
   1020b:	41 ff d0             	callq  *%r8
   1020e:	48 8b 45 f8          	mov    -0x8(%rbp),%rax
   10212:	64 48 2b 04 25 28 00 	sub    %fs:0x28,%rax
   10219:	00 00 
   1021b:	74 05                	je     10222 <_ZN13dzBaseVisitor10visitBlockEPN8dzParser12BlockContextE+0x5a>
   1021d:	e8 9e ce ff ff       	callq  d0c0 <__stack_chk_fail@plt>
   10222:	48 8b 45 e8          	mov    -0x18(%rbp),%rax
   10226:	c9                   	leaveq 
   10227:	c3                   	retq   

0000000000010228 <_ZN13dzBaseVisitor13visitConstantEPN8dzParser15ConstantContextE>:
   10228:	55                   	push   %rbp
   10229:	48 89 e5             	mov    %rsp,%rbp
   1022c:	48 83 ec 30          	sub    $0x30,%rsp
   10230:	48 89 7d e8          	mov    %rdi,-0x18(%rbp)
   10234:	48 89 75 e0          	mov    %rsi,-0x20(%rbp)
   10238:	48 89 55 d8          	mov    %rdx,-0x28(%rbp)
   1023c:	64 48 8b 04 25 28 00 	mov    %fs:0x28,%rax
   10243:	00 00 
   10245:	48 89 45 f8          	mov    %rax,-0x8(%rbp)
   10249:	31 c0                	xor    %eax,%eax
   1024b:	48 8b 4d e0          	mov    -0x20(%rbp),%rcx
   1024f:	48 8b 45 e0          	mov    -0x20(%rbp),%rax
   10253:	48 8b 00             	mov    (%rax),%rax
   10256:	48 83 c0 18          	add    $0x18,%rax
   1025a:	4c 8b 00             	mov    (%rax),%r8
   1025d:	48 8b 45 e8          	mov    -0x18(%rbp),%rax
   10261:	48 8b 55 d8          	mov    -0x28(%rbp),%rdx
   10265:	48 89 ce             	mov    %rcx,%rsi
   10268:	48 89 c7             	mov    %rax,%rdi
   1026b:	41 ff d0             	callq  *%r8
   1026e:	48 8b 45 f8          	mov    -0x8(%rbp),%rax
   10272:	64 48 2b 04 25 28 00 	sub    %fs:0x28,%rax
   10279:	00 00 
   1027b:	74 05                	je     10282 <_ZN13dzBaseVisitor13visitConstantEPN8dzParser15ConstantContextE+0x5a>
   1027d:	e8 3e ce ff ff       	callq  d0c0 <__stack_chk_fail@plt>
   10282:	48 8b 45 e8          	mov    -0x18(%rbp),%rax
   10286:	c9                   	leaveq 
   10287:	c3                   	retq   

0000000000010288 <_ZN13dzBaseVisitor13visitArgumentEPN8dzParser15ArgumentContextE>:
   10288:	55                   	push   %rbp
   10289:	48 89 e5             	mov    %rsp,%rbp
   1028c:	48 83 ec 30          	sub    $0x30,%rsp
   10290:	48 89 7d e8          	mov    %rdi,-0x18(%rbp)
   10294:	48 89 75 e0          	mov    %rsi,-0x20(%rbp)
   10298:	48 89 55 d8          	mov    %rdx,-0x28(%rbp)
   1029c:	64 48 8b 04 25 28 00 	mov    %fs:0x28,%rax
   102a3:	00 00 
   102a5:	48 89 45 f8          	mov    %rax,-0x8(%rbp)
   102a9:	31 c0                	xor    %eax,%eax
   102ab:	48 8b 4d e0          	mov    -0x20(%rbp),%rcx
   102af:	48 8b 45 e0          	mov    -0x20(%rbp),%rax
   102b3:	48 8b 00             	mov    (%rax),%rax
   102b6:	48 83 c0 18          	add    $0x18,%rax
   102ba:	4c 8b 00             	mov    (%rax),%r8
   102bd:	48 8b 45 e8          	mov    -0x18(%rbp),%rax
   102c1:	48 8b 55 d8          	mov    -0x28(%rbp),%rdx
   102c5:	48 89 ce             	mov    %rcx,%rsi
   102c8:	48 89 c7             	mov    %rax,%rdi
   102cb:	41 ff d0             	callq  *%r8
   102ce:	48 8b 45 f8          	mov    -0x8(%rbp),%rax
   102d2:	64 48 2b 04 25 28 00 	sub    %fs:0x28,%rax
   102d9:	00 00 
   102db:	74 05                	je     102e2 <_ZN13dzBaseVisitor13visitArgumentEPN8dzParser15ArgumentContextE+0x5a>
   102dd:	e8 de cd ff ff       	callq  d0c0 <__stack_chk_fail@plt>
   102e2:	48 8b 45 e8          	mov    -0x18(%rbp),%rax
   102e6:	c9                   	leaveq 
   102e7:	c3                   	retq   

00000000000102e8 <_ZN13dzBaseVisitor13visitTypeNameEPN8dzParser15TypeNameContextE>:
   102e8:	55                   	push   %rbp
   102e9:	48 89 e5             	mov    %rsp,%rbp
   102ec:	48 83 ec 30          	sub    $0x30,%rsp
   102f0:	48 89 7d e8          	mov    %rdi,-0x18(%rbp)
   102f4:	48 89 75 e0          	mov    %rsi,-0x20(%rbp)
   102f8:	48 89 55 d8          	mov    %rdx,-0x28(%rbp)
   102fc:	64 48 8b 04 25 28 00 	mov    %fs:0x28,%rax
   10303:	00 00 
   10305:	48 89 45 f8          	mov    %rax,-0x8(%rbp)
   10309:	31 c0                	xor    %eax,%eax
   1030b:	48 8b 4d e0          	mov    -0x20(%rbp),%rcx
   1030f:	48 8b 45 e0          	mov    -0x20(%rbp),%rax
   10313:	48 8b 00             	mov    (%rax),%rax
   10316:	48 83 c0 18          	add    $0x18,%rax
   1031a:	4c 8b 00             	mov    (%rax),%r8
   1031d:	48 8b 45 e8          	mov    -0x18(%rbp),%rax
   10321:	48 8b 55 d8          	mov    -0x28(%rbp),%rdx
   10325:	48 89 ce             	mov    %rcx,%rsi
   10328:	48 89 c7             	mov    %rax,%rdi
   1032b:	41 ff d0             	callq  *%r8
   1032e:	48 8b 45 f8          	mov    -0x8(%rbp),%rax
   10332:	64 48 2b 04 25 28 00 	sub    %fs:0x28,%rax
   10339:	00 00 
   1033b:	74 05                	je     10342 <_ZN13dzBaseVisitor13visitTypeNameEPN8dzParser15TypeNameContextE+0x5a>
   1033d:	e8 7e cd ff ff       	callq  d0c0 <__stack_chk_fail@plt>
   10342:	48 8b 45 e8          	mov    -0x18(%rbp),%rax
   10346:	c9                   	leaveq 
   10347:	c3                   	retq   

0000000000010348 <_ZN6antlr44tree16ParseTreeVisitorC1Ev>:
   10348:	55                   	push   %rbp
   10349:	48 89 e5             	mov    %rsp,%rbp
   1034c:	48 89 7d f8          	mov    %rdi,-0x8(%rbp)
   10350:	48 8b 05 01 dc 02 00 	mov    0x2dc01(%rip),%rax        # 3df58 <_ZTVN6antlr44tree16ParseTreeVisitorE>
   10357:	48 8d 50 10          	lea    0x10(%rax),%rdx
   1035b:	48 8b 45 f8          	mov    -0x8(%rbp),%rax
   1035f:	48 89 10             	mov    %rdx,(%rax)
   10362:	90                   	nop
   10363:	5d                   	pop    %rbp
   10364:	c3                   	retq   
   10365:	90                   	nop

0000000000010366 <_ZN6antlr44tree24AbstractParseTreeVisitorC1Ev>:
   10366:	55                   	push   %rbp
   10367:	48 89 e5             	mov    %rsp,%rbp
   1036a:	48 83 ec 10          	sub    $0x10,%rsp
   1036e:	48 89 7d f8          	mov    %rdi,-0x8(%rbp)
   10372:	48 8b 45 f8          	mov    -0x8(%rbp),%rax
   10376:	48 89 c7             	mov    %rax,%rdi
   10379:	e8 ca ff ff ff       	callq  10348 <_ZN6antlr44tree16ParseTreeVisitorC1Ev>
   1037e:	48 8d 05 eb c6 02 00 	lea    0x2c6eb(%rip),%rax        # 3ca70 <_ZTVN6antlr44tree24AbstractParseTreeVisitorE>
   10385:	48 8d 50 10          	lea    0x10(%rax),%rdx
   10389:	48 8b 45 f8          	mov    -0x8(%rbp),%rax
   1038d:	48 89 10             	mov    %rdx,(%rax)
   10390:	90                   	nop
   10391:	c9                   	leaveq 
   10392:	c3                   	retq   
   10393:	90                   	nop

0000000000010394 <_ZN6antlr44tree24AbstractParseTreeVisitorD1Ev>:
   10394:	55                   	push   %rbp
   10395:	48 89 e5             	mov    %rsp,%rbp
   10398:	48 83 ec 10          	sub    $0x10,%rsp
   1039c:	48 89 7d f8          	mov    %rdi,-0x8(%rbp)
   103a0:	48 8d 05 c9 c6 02 00 	lea    0x2c6c9(%rip),%rax        # 3ca70 <_ZTVN6antlr44tree24AbstractParseTreeVisitorE>
   103a7:	48 8d 50 10          	lea    0x10(%rax),%rdx
   103ab:	48 8b 45 f8          	mov    -0x8(%rbp),%rax
   103af:	48 89 10             	mov    %rdx,(%rax)
   103b2:	48 8b 45 f8          	mov    -0x8(%rbp),%rax
   103b6:	48 89 c7             	mov    %rax,%rdi
   103b9:	e8 82 d0 ff ff       	callq  d440 <_ZN6antlr44tree16ParseTreeVisitorD2Ev@plt>
   103be:	90                   	nop
   103bf:	c9                   	leaveq 
   103c0:	c3                   	retq   
   103c1:	90                   	nop

00000000000103c2 <_ZN6antlr44tree24AbstractParseTreeVisitorD0Ev>:
   103c2:	55                   	push   %rbp
   103c3:	48 89 e5             	mov    %rsp,%rbp
   103c6:	48 83 ec 10          	sub    $0x10,%rsp
   103ca:	48 89 7d f8          	mov    %rdi,-0x8(%rbp)
   103ce:	48 8b 45 f8          	mov    -0x8(%rbp),%rax
   103d2:	48 89 c7             	mov    %rax,%rdi
   103d5:	e8 ba ff ff ff       	callq  10394 <_ZN6antlr44tree24AbstractParseTreeVisitorD1Ev>
   103da:	48 8b 45 f8          	mov    -0x8(%rbp),%rax
   103de:	be 08 00 00 00       	mov    $0x8,%esi
   103e3:	48 89 c7             	mov    %rax,%rdi
   103e6:	e8 35 d2 ff ff       	callq  d620 <_ZdlPvm@plt>
   103eb:	c9                   	leaveq 
   103ec:	c3                   	retq   
   103ed:	90                   	nop

00000000000103ee <_ZN9dzVisitorC1Ev>:
   103ee:	55                   	push   %rbp
   103ef:	48 89 e5             	mov    %rsp,%rbp
   103f2:	48 83 ec 10          	sub    $0x10,%rsp
   103f6:	48 89 7d f8          	mov    %rdi,-0x8(%rbp)
   103fa:	48 8b 45 f8          	mov    -0x8(%rbp),%rax
   103fe:	48 89 c7             	mov    %rax,%rdi
   10401:	e8 60 ff ff ff       	callq  10366 <_ZN6antlr44tree24AbstractParseTreeVisitorC1Ev>
   10406:	48 8d 05 ab c5 02 00 	lea    0x2c5ab(%rip),%rax        # 3c9b8 <_ZTV9dzVisitor>
   1040d:	48 8d 50 10          	lea    0x10(%rax),%rdx
   10411:	48 8b 45 f8          	mov    -0x8(%rbp),%rax
   10415:	48 89 10             	mov    %rdx,(%rax)
   10418:	90                   	nop
   10419:	c9                   	leaveq 
   1041a:	c3                   	retq   
   1041b:	90                   	nop

000000000001041c <_ZN9dzVisitorD1Ev>:
   1041c:	55                   	push   %rbp
   1041d:	48 89 e5             	mov    %rsp,%rbp
   10420:	48 83 ec 10          	sub    $0x10,%rsp
   10424:	48 89 7d f8          	mov    %rdi,-0x8(%rbp)
   10428:	48 8d 05 89 c5 02 00 	lea    0x2c589(%rip),%rax        # 3c9b8 <_ZTV9dzVisitor>
   1042f:	48 8d 50 10          	lea    0x10(%rax),%rdx
   10433:	48 8b 45 f8          	mov    -0x8(%rbp),%rax
   10437:	48 89 10             	mov    %rdx,(%rax)
   1043a:	48 8b 45 f8          	mov    -0x8(%rbp),%rax
   1043e:	48 89 c7             	mov    %rax,%rdi
   10441:	e8 4e ff ff ff       	callq  10394 <_ZN6antlr44tree24AbstractParseTreeVisitorD1Ev>
   10446:	90                   	nop
   10447:	c9                   	leaveq 
   10448:	c3                   	retq   
   10449:	90                   	nop

000000000001044a <_ZN9dzVisitorD0Ev>:
   1044a:	55                   	push   %rbp
   1044b:	48 89 e5             	mov    %rsp,%rbp
   1044e:	48 83 ec 10          	sub    $0x10,%rsp
   10452:	48 89 7d f8          	mov    %rdi,-0x8(%rbp)
   10456:	48 8b 45 f8          	mov    -0x8(%rbp),%rax
   1045a:	48 89 c7             	mov    %rax,%rdi
   1045d:	e8 ba ff ff ff       	callq  1041c <_ZN9dzVisitorD1Ev>
   10462:	48 8b 45 f8          	mov    -0x8(%rbp),%rax
   10466:	be 08 00 00 00       	mov    $0x8,%esi
   1046b:	48 89 c7             	mov    %rax,%rdi
   1046e:	e8 ad d1 ff ff       	callq  d620 <_ZdlPvm@plt>
   10473:	c9                   	leaveq 
   10474:	c3                   	retq   
   10475:	90                   	nop

0000000000010476 <_ZN13dzBaseVisitorC1Ev>:
   10476:	55                   	push   %rbp
   10477:	48 89 e5             	mov    %rsp,%rbp
   1047a:	48 83 ec 10          	sub    $0x10,%rsp
   1047e:	48 89 7d f8          	mov    %rdi,-0x8(%rbp)
   10482:	48 8b 45 f8          	mov    -0x8(%rbp),%rax
   10486:	48 89 c7             	mov    %rax,%rdi
   10489:	e8 60 ff ff ff       	callq  103ee <_ZN9dzVisitorC1Ev>
   1048e:	48 8d 05 6b c4 02 00 	lea    0x2c46b(%rip),%rax        # 3c900 <_ZTV13dzBaseVisitor>
   10495:	48 8d 50 10          	lea    0x10(%rax),%rdx
   10499:	48 8b 45 f8          	mov    -0x8(%rbp),%rax
   1049d:	48 89 10             	mov    %rdx,(%rax)
   104a0:	90                   	nop
   104a1:	c9                   	leaveq 
   104a2:	c3                   	retq   
   104a3:	90                   	nop

00000000000104a4 <_ZN13dzBaseVisitorD1Ev>:
   104a4:	55                   	push   %rbp
   104a5:	48 89 e5             	mov    %rsp,%rbp
   104a8:	48 83 ec 10          	sub    $0x10,%rsp
   104ac:	48 89 7d f8          	mov    %rdi,-0x8(%rbp)
   104b0:	48 8d 05 49 c4 02 00 	lea    0x2c449(%rip),%rax        # 3c900 <_ZTV13dzBaseVisitor>
   104b7:	48 8d 50 10          	lea    0x10(%rax),%rdx
   104bb:	48 8b 45 f8          	mov    -0x8(%rbp),%rax
   104bf:	48 89 10             	mov    %rdx,(%rax)
   104c2:	48 8b 45 f8          	mov    -0x8(%rbp),%rax
   104c6:	48 89 c7             	mov    %rax,%rdi
   104c9:	e8 4e ff ff ff       	callq  1041c <_ZN9dzVisitorD1Ev>
   104ce:	90                   	nop
   104cf:	c9                   	leaveq 
   104d0:	c3                   	retq   
   104d1:	90                   	nop

00000000000104d2 <_ZN13dzBaseVisitorD0Ev>:
   104d2:	55                   	push   %rbp
   104d3:	48 89 e5             	mov    %rsp,%rbp
   104d6:	48 83 ec 10          	sub    $0x10,%rsp
   104da:	48 89 7d f8          	mov    %rdi,-0x8(%rbp)
   104de:	48 8b 45 f8          	mov    -0x8(%rbp),%rax
   104e2:	48 89 c7             	mov    %rax,%rdi
   104e5:	e8 ba ff ff ff       	callq  104a4 <_ZN13dzBaseVisitorD1Ev>
   104ea:	48 8b 45 f8          	mov    -0x8(%rbp),%rax
   104ee:	be 08 00 00 00       	mov    $0x8,%esi
   104f3:	48 89 c7             	mov    %rax,%rdi
   104f6:	e8 25 d1 ff ff       	callq  d620 <_ZdlPvm@plt>
   104fb:	c9                   	leaveq 
   104fc:	c3                   	retq   
   104fd:	90                   	nop

00000000000104fe <_ZN7VisitorC1ERN4llvm11LLVMContextERNS0_6ModuleEPNS0_9IRBuilderINS0_14ConstantFolderENS0_24IRBuilderDefaultInserterEEEPNS0_8FunctionE>:
   104fe:	55                   	push   %rbp
   104ff:	48 89 e5             	mov    %rsp,%rbp
   10502:	48 83 ec 30          	sub    $0x30,%rsp
   10506:	48 89 7d f8          	mov    %rdi,-0x8(%rbp)
   1050a:	48 89 75 f0          	mov    %rsi,-0x10(%rbp)
   1050e:	48 89 55 e8          	mov    %rdx,-0x18(%rbp)
   10512:	48 89 4d e0          	mov    %rcx,-0x20(%rbp)
   10516:	4c 89 45 d8          	mov    %r8,-0x28(%rbp)
   1051a:	48 8b 45 f8          	mov    -0x8(%rbp),%rax
   1051e:	48 89 c7             	mov    %rax,%rdi
   10521:	e8 50 ff ff ff       	callq  10476 <_ZN13dzBaseVisitorC1Ev>
   10526:	48 8d 05 1b c3 02 00 	lea    0x2c31b(%rip),%rax        # 3c848 <_ZTV7Visitor>
   1052d:	48 8d 50 10          	lea    0x10(%rax),%rdx
   10531:	48 8b 45 f8          	mov    -0x8(%rbp),%rax
   10535:	48 89 10             	mov    %rdx,(%rax)
   10538:	48 8b 45 f8          	mov    -0x8(%rbp),%rax
   1053c:	48 8b 55 f0          	mov    -0x10(%rbp),%rdx
   10540:	48 89 50 08          	mov    %rdx,0x8(%rax)
   10544:	48 8b 45 f8          	mov    -0x8(%rbp),%rax
   10548:	48 8b 55 e8          	mov    -0x18(%rbp),%rdx
   1054c:	48 89 50 10          	mov    %rdx,0x10(%rax)
   10550:	48 8b 45 f8          	mov    -0x8(%rbp),%rax
   10554:	48 8b 55 e0          	mov    -0x20(%rbp),%rdx
   10558:	48 89 50 18          	mov    %rdx,0x18(%rax)
   1055c:	48 8b 45 f8          	mov    -0x8(%rbp),%rax
   10560:	48 8b 55 d8          	mov    -0x28(%rbp),%rdx
   10564:	48 89 50 20          	mov    %rdx,0x20(%rax)
   10568:	90                   	nop
   10569:	c9                   	leaveq 
   1056a:	c3                   	retq   
   1056b:	90                   	nop

000000000001056c <_ZN7Visitor15visitAssignmentEPN8dzParser17AssignmentContextE>:
   1056c:	55                   	push   %rbp
   1056d:	48 89 e5             	mov    %rsp,%rbp
   10570:	53                   	push   %rbx
   10571:	48 81 ec 88 00 00 00 	sub    $0x88,%rsp
   10578:	48 89 7d 88          	mov    %rdi,-0x78(%rbp)
   1057c:	48 89 75 80          	mov    %rsi,-0x80(%rbp)
   10580:	48 89 95 78 ff ff ff 	mov    %rdx,-0x88(%rbp)
   10587:	64 48 8b 04 25 28 00 	mov    %fs:0x28,%rax
   1058e:	00 00 
   10590:	48 89 45 e8          	mov    %rax,-0x18(%rbp)
   10594:	31 c0                	xor    %eax,%eax
   10596:	48 8b 85 78 ff ff ff 	mov    -0x88(%rbp),%rax
   1059d:	48 89 c7             	mov    %rax,%rdi
   105a0:	e8 15 d3 00 00       	callq  1d8ba <_ZN8dzParser17AssignmentContext2IDEv>
   105a5:	48 89 45 90          	mov    %rax,-0x70(%rbp)
   105a9:	48 8b 85 78 ff ff ff 	mov    -0x88(%rbp),%rax
   105b0:	48 89 c7             	mov    %rax,%rdi
   105b3:	e8 34 d3 00 00       	callq  1d8ec <_ZN8dzParser17AssignmentContext10expressionEv>
   105b8:	48 89 45 98          	mov    %rax,-0x68(%rbp)
   105bc:	48 8b 55 90          	mov    -0x70(%rbp),%rdx
   105c0:	48 8b 45 90          	mov    -0x70(%rbp),%rax
   105c4:	48 8b 00             	mov    (%rax),%rax
   105c7:	48 83 c0 38          	add    $0x38,%rax
   105cb:	48 8b 08             	mov    (%rax),%rcx
   105ce:	48 8d 45 a0          	lea    -0x60(%rbp),%rax
   105d2:	48 89 d6             	mov    %rdx,%rsi
   105d5:	48 89 c7             	mov    %rax,%rdi
   105d8:	ff d1                	callq  *%rcx
   105da:	48 8d 45 a0          	lea    -0x60(%rbp),%rax
   105de:	48 89 c6             	mov    %rax,%rsi
   105e1:	48 8b 05 a0 d9 02 00 	mov    0x2d9a0(%rip),%rax        # 3df88 <_ZSt4cout@GLIBCXX_3.4>
   105e8:	48 89 c7             	mov    %rax,%rdi
   105eb:	e8 70 cd ff ff       	callq  d360 <_ZStlsIcSt11char_traitsIcESaIcEERSt13basic_ostreamIT_T0_ES7_RKNSt7__cxx1112basic_stringIS4_S5_T1_EE@plt>
   105f0:	48 8d 35 6d 9d 01 00 	lea    0x19d6d(%rip),%rsi        # 2a364 <_ZStL10adopt_lock+0x1>
   105f7:	48 89 c7             	mov    %rax,%rdi
   105fa:	e8 91 d4 ff ff       	callq  da90 <_ZStlsISt11char_traitsIcEERSt13basic_ostreamIcT_ES5_PKc@plt>
   105ff:	48 89 c3             	mov    %rax,%rbx
   10602:	48 8b 55 98          	mov    -0x68(%rbp),%rdx
   10606:	48 8b 45 98          	mov    -0x68(%rbp),%rax
   1060a:	48 8b 00             	mov    (%rax),%rax
   1060d:	48 83 c0 38          	add    $0x38,%rax
   10611:	48 8b 08             	mov    (%rax),%rcx
   10614:	48 8d 45 c0          	lea    -0x40(%rbp),%rax
   10618:	48 89 d6             	mov    %rdx,%rsi
   1061b:	48 89 c7             	mov    %rax,%rdi
   1061e:	ff d1                	callq  *%rcx
   10620:	48 8d 45 c0          	lea    -0x40(%rbp),%rax
   10624:	48 89 c6             	mov    %rax,%rsi
   10627:	48 89 df             	mov    %rbx,%rdi
   1062a:	e8 31 cd ff ff       	callq  d360 <_ZStlsIcSt11char_traitsIcESaIcEERSt13basic_ostreamIT_T0_ES7_RKNSt7__cxx1112basic_stringIS4_S5_T1_EE@plt>
   1062f:	48 89 c2             	mov    %rax,%rdx
   10632:	48 8b 05 cf d8 02 00 	mov    0x2d8cf(%rip),%rax        # 3df08 <_ZSt4endlIcSt11char_traitsIcEERSt13basic_ostreamIT_T0_ES6_@GLIBCXX_3.4>
   10639:	48 89 c6             	mov    %rax,%rsi
   1063c:	48 89 d7             	mov    %rdx,%rdi
   1063f:	e8 fc ce ff ff       	callq  d540 <_ZNSolsEPFRSoS_E@plt>
   10644:	48 8d 45 c0          	lea    -0x40(%rbp),%rax
   10648:	48 89 c7             	mov    %rax,%rdi
   1064b:	e8 20 ce ff ff       	callq  d470 <_ZNSt7__cxx1112basic_stringIcSt11char_traitsIcESaIcEED1Ev@plt>
   10650:	48 8d 45 a0          	lea    -0x60(%rbp),%rax
   10654:	48 89 c7             	mov    %rax,%rdi
   10657:	e8 14 ce ff ff       	callq  d470 <_ZNSt7__cxx1112basic_stringIcSt11char_traitsIcESaIcEED1Ev@plt>
   1065c:	48 8b 4d 80          	mov    -0x80(%rbp),%rcx
   10660:	48 8b 45 80          	mov    -0x80(%rbp),%rax
   10664:	48 8b 00             	mov    (%rax),%rax
   10667:	48 83 c0 18          	add    $0x18,%rax
   1066b:	4c 8b 00             	mov    (%rax),%r8
   1066e:	48 8b 45 88          	mov    -0x78(%rbp),%rax
   10672:	48 8b 95 78 ff ff ff 	mov    -0x88(%rbp),%rdx
   10679:	48 89 ce             	mov    %rcx,%rsi
   1067c:	48 89 c7             	mov    %rax,%rdi
   1067f:	41 ff d0             	callq  *%r8
   10682:	48 8b 45 e8          	mov    -0x18(%rbp),%rax
   10686:	64 48 2b 04 25 28 00 	sub    %fs:0x28,%rax
   1068d:	00 00 
   1068f:	74 32                	je     106c3 <_ZN7Visitor15visitAssignmentEPN8dzParser17AssignmentContextE+0x157>
   10691:	eb 2b                	jmp    106be <_ZN7Visitor15visitAssignmentEPN8dzParser17AssignmentContextE+0x152>
   10693:	48 89 c3             	mov    %rax,%rbx
   10696:	48 8d 45 c0          	lea    -0x40(%rbp),%rax
   1069a:	48 89 c7             	mov    %rax,%rdi
   1069d:	e8 ce cd ff ff       	callq  d470 <_ZNSt7__cxx1112basic_stringIcSt11char_traitsIcESaIcEED1Ev@plt>
   106a2:	eb 03                	jmp    106a7 <_ZN7Visitor15visitAssignmentEPN8dzParser17AssignmentContextE+0x13b>
   106a4:	48 89 c3             	mov    %rax,%rbx
   106a7:	48 8d 45 a0          	lea    -0x60(%rbp),%rax
   106ab:	48 89 c7             	mov    %rax,%rdi
   106ae:	e8 bd cd ff ff       	callq  d470 <_ZNSt7__cxx1112basic_stringIcSt11char_traitsIcESaIcEED1Ev@plt>
   106b3:	48 89 d8             	mov    %rbx,%rax
   106b6:	48 89 c7             	mov    %rax,%rdi
   106b9:	e8 c2 d0 ff ff       	callq  d780 <_Unwind_Resume@plt>
   106be:	e8 fd c9 ff ff       	callq  d0c0 <__stack_chk_fail@plt>
   106c3:	48 8b 45 88          	mov    -0x78(%rbp),%rax
   106c7:	48 8b 5d f8          	mov    -0x8(%rbp),%rbx
   106cb:	c9                   	leaveq 
   106cc:	c3                   	retq   
   106cd:	90                   	nop

00000000000106ce <_ZNSt12_Vector_baseIPN8dzParser15ArgumentContextESaIS2_EE12_Vector_implD1Ev>:
   106ce:	55                   	push   %rbp
   106cf:	48 89 e5             	mov    %rsp,%rbp
   106d2:	48 83 ec 10          	sub    $0x10,%rsp
   106d6:	48 89 7d f8          	mov    %rdi,-0x8(%rbp)
   106da:	48 8b 45 f8          	mov    -0x8(%rbp),%rax
   106de:	48 89 c7             	mov    %rax,%rdi
   106e1:	e8 6a 10 00 00       	callq  11750 <_ZNSaIPN8dzParser15ArgumentContextEED1Ev>
   106e6:	90                   	nop
   106e7:	c9                   	leaveq 
   106e8:	c3                   	retq   
   106e9:	90                   	nop

00000000000106ea <_ZNSt12_Vector_baseIPN4llvm4TypeESaIS2_EE12_Vector_implD1Ev>:
   106ea:	55                   	push   %rbp
   106eb:	48 89 e5             	mov    %rsp,%rbp
   106ee:	48 83 ec 10          	sub    $0x10,%rsp
   106f2:	48 89 7d f8          	mov    %rdi,-0x8(%rbp)
   106f6:	48 8b 45 f8          	mov    -0x8(%rbp),%rax
   106fa:	48 89 c7             	mov    %rax,%rdi
   106fd:	e8 e0 10 00 00       	callq  117e2 <_ZNSaIPN4llvm4TypeEED1Ev>
   10702:	90                   	nop
   10703:	c9                   	leaveq 
   10704:	c3                   	retq   
   10705:	90                   	nop

0000000000010706 <_ZNSt12_Vector_baseIPN4llvm4TypeESaIS2_EEC1Ev>:
   10706:	55                   	push   %rbp
   10707:	48 89 e5             	mov    %rsp,%rbp
   1070a:	48 83 ec 10          	sub    $0x10,%rsp
   1070e:	48 89 7d f8          	mov    %rdi,-0x8(%rbp)
   10712:	48 8b 45 f8          	mov    -0x8(%rbp),%rax
   10716:	48 89 c7             	mov    %rax,%rdi
   10719:	e8 9c 10 00 00       	callq  117ba <_ZNSt12_Vector_baseIPN4llvm4TypeESaIS2_EE12_Vector_implC1Ev>
   1071e:	90                   	nop
   1071f:	c9                   	leaveq 
   10720:	c3                   	retq   
   10721:	90                   	nop

0000000000010722 <_ZNSt6vectorIPN4llvm4TypeESaIS2_EEC1Ev>:
   10722:	55                   	push   %rbp
   10723:	48 89 e5             	mov    %rsp,%rbp
   10726:	48 83 ec 10          	sub    $0x10,%rsp
   1072a:	48 89 7d f8          	mov    %rdi,-0x8(%rbp)
   1072e:	48 8b 45 f8          	mov    -0x8(%rbp),%rax
   10732:	48 89 c7             	mov    %rax,%rdi
   10735:	e8 cc ff ff ff       	callq  10706 <_ZNSt12_Vector_baseIPN4llvm4TypeESaIS2_EEC1Ev>
   1073a:	90                   	nop
   1073b:	c9                   	leaveq 
   1073c:	c3                   	retq   
   1073d:	90                   	nop

000000000001073e <_ZN7Visitor13visitFunctionEPN8dzParser15FunctionContextE>:
   1073e:	55                   	push   %rbp
   1073f:	48 89 e5             	mov    %rsp,%rbp
   10742:	53                   	push   %rbx
   10743:	48 81 ec 08 01 00 00 	sub    $0x108,%rsp
   1074a:	48 89 bd 08 ff ff ff 	mov    %rdi,-0xf8(%rbp)
   10751:	48 89 b5 00 ff ff ff 	mov    %rsi,-0x100(%rbp)
   10758:	48 89 95 f8 fe ff ff 	mov    %rdx,-0x108(%rbp)
   1075f:	64 48 8b 04 25 28 00 	mov    %fs:0x28,%rax
   10766:	00 00 
   10768:	48 89 45 e8          	mov    %rax,-0x18(%rbp)
   1076c:	31 c0                	xor    %eax,%eax
   1076e:	48 8b 85 f8 fe ff ff 	mov    -0x108(%rbp),%rax
   10775:	48 89 c7             	mov    %rax,%rdi
   10778:	e8 e1 b6 00 00       	callq  1be5e <_ZN8dzParser15FunctionContext8typeNameEv>
   1077d:	48 89 c2             	mov    %rax,%rdx
   10780:	48 8b 85 00 ff ff ff 	mov    -0x100(%rbp),%rax
   10787:	48 89 d6             	mov    %rdx,%rsi
   1078a:	48 89 c7             	mov    %rax,%rdi
   1078d:	e8 e2 0e 00 00       	callq  11674 <_ZN7Visitor7visitAsIPN4llvm4TypeEEET_PN6antlr44tree9ParseTreeE>
   10792:	48 89 85 20 ff ff ff 	mov    %rax,-0xe0(%rbp)
   10799:	48 8d 85 50 ff ff ff 	lea    -0xb0(%rbp),%rax
   107a0:	48 8b 95 f8 fe ff ff 	mov    -0x108(%rbp),%rdx
   107a7:	48 89 d6             	mov    %rdx,%rsi
   107aa:	48 89 c7             	mov    %rax,%rdi
   107ad:	e8 1e b7 00 00       	callq  1bed0 <_ZN8dzParser15FunctionContext8argumentEv>
   107b2:	48 8b 85 f8 fe ff ff 	mov    -0x108(%rbp),%rax
   107b9:	48 89 c7             	mov    %rax,%rdi
   107bc:	e8 bd b6 00 00       	callq  1be7e <_ZN8dzParser15FunctionContext2IDEv>
   107c1:	48 8b 10             	mov    (%rax),%rdx
   107c4:	48 83 c2 38          	add    $0x38,%rdx
   107c8:	48 8b 0a             	mov    (%rdx),%rcx
   107cb:	48 8d 55 c0          	lea    -0x40(%rbp),%rdx
   107cf:	48 89 c6             	mov    %rax,%rsi
   107d2:	48 89 d7             	mov    %rdx,%rdi
   107d5:	ff d1                	callq  *%rcx
   107d7:	48 8d 85 70 ff ff ff 	lea    -0x90(%rbp),%rax
   107de:	48 89 c7             	mov    %rax,%rdi
   107e1:	e8 3c ff ff ff       	callq  10722 <_ZNSt6vectorIPN4llvm4TypeESaIS2_EEC1Ev>
   107e6:	48 8d 85 50 ff ff ff 	lea    -0xb0(%rbp),%rax
   107ed:	48 89 85 28 ff ff ff 	mov    %rax,-0xd8(%rbp)
   107f4:	48 8b 85 28 ff ff ff 	mov    -0xd8(%rbp),%rax
   107fb:	48 89 c7             	mov    %rax,%rdi
   107fe:	e8 8d 10 00 00       	callq  11890 <_ZNSt6vectorIPN8dzParser15ArgumentContextESaIS2_EE5beginEv>
   10803:	48 89 85 18 ff ff ff 	mov    %rax,-0xe8(%rbp)
   1080a:	48 8b 85 28 ff ff ff 	mov    -0xd8(%rbp),%rax
   10811:	48 89 c7             	mov    %rax,%rdi
   10814:	e8 bf 10 00 00       	callq  118d8 <_ZNSt6vectorIPN8dzParser15ArgumentContextESaIS2_EE3endEv>
   10819:	48 89 85 40 ff ff ff 	mov    %rax,-0xc0(%rbp)
   10820:	48 8d 95 40 ff ff ff 	lea    -0xc0(%rbp),%rdx
   10827:	48 8d 85 18 ff ff ff 	lea    -0xe8(%rbp),%rax
   1082e:	48 89 d6             	mov    %rdx,%rsi
   10831:	48 89 c7             	mov    %rax,%rdi
   10834:	e8 eb 10 00 00       	callq  11924 <_ZN9__gnu_cxxneIPPN8dzParser15ArgumentContextESt6vectorIS3_SaIS3_EEEEbRKNS_17__normal_iteratorIT_T0_EESD_>
   10839:	84 c0                	test   %al,%al
   1083b:	74 6b                	je     108a8 <_ZN7Visitor13visitFunctionEPN8dzParser15FunctionContextE+0x16a>
   1083d:	48 8d 85 18 ff ff ff 	lea    -0xe8(%rbp),%rax
   10844:	48 89 c7             	mov    %rax,%rdi
   10847:	e8 34 11 00 00       	callq  11980 <_ZNK9__gnu_cxx17__normal_iteratorIPPN8dzParser15ArgumentContextESt6vectorIS3_SaIS3_EEEdeEv>
   1084c:	48 8b 00             	mov    (%rax),%rax
   1084f:	48 89 85 38 ff ff ff 	mov    %rax,-0xc8(%rbp)
   10856:	48 8b 85 38 ff ff ff 	mov    -0xc8(%rbp),%rax
   1085d:	48 89 c7             	mov    %rax,%rdi
   10860:	e8 e9 ea 00 00       	callq  1f34e <_ZN8dzParser15ArgumentContext8typeNameEv>
   10865:	48 89 c2             	mov    %rax,%rdx
   10868:	48 8b 85 00 ff ff ff 	mov    -0x100(%rbp),%rax
   1086f:	48 89 d6             	mov    %rdx,%rsi
   10872:	48 89 c7             	mov    %rax,%rdi
   10875:	e8 fa 0d 00 00       	callq  11674 <_ZN7Visitor7visitAsIPN4llvm4TypeEEET_PN6antlr44tree9ParseTreeE>
   1087a:	48 89 45 90          	mov    %rax,-0x70(%rbp)
   1087e:	48 8d 55 90          	lea    -0x70(%rbp),%rdx
   10882:	48 8d 85 70 ff ff ff 	lea    -0x90(%rbp),%rax
   10889:	48 89 d6             	mov    %rdx,%rsi
   1088c:	48 89 c7             	mov    %rax,%rdi
   1088f:	e8 fe 10 00 00       	callq  11992 <_ZNSt6vectorIPN4llvm4TypeESaIS2_EE9push_backERKS2_>
   10894:	48 8d 85 18 ff ff ff 	lea    -0xe8(%rbp),%rax
   1089b:	48 89 c7             	mov    %rax,%rdi
   1089e:	e8 bd 10 00 00       	callq  11960 <_ZN9__gnu_cxx17__normal_iteratorIPPN8dzParser15ArgumentContextESt6vectorIS3_SaIS3_EEEppEv>
   108a3:	e9 78 ff ff ff       	jmpq   10820 <_ZN7Visitor13visitFunctionEPN8dzParser15FunctionContextE+0xe2>
   108a8:	48 8d 95 70 ff ff ff 	lea    -0x90(%rbp),%rdx
   108af:	48 8d 45 90          	lea    -0x70(%rbp),%rax
   108b3:	48 89 d6             	mov    %rdx,%rsi
   108b6:	48 89 c7             	mov    %rax,%rdi
   108b9:	e8 50 11 00 00       	callq  11a0e <_ZN4llvm8ArrayRefIPNS_4TypeEEC1ISaIS2_EEERKSt6vectorIS2_T_E>
   108be:	48 8b 75 90          	mov    -0x70(%rbp),%rsi
   108c2:	48 8b 55 98          	mov    -0x68(%rbp),%rdx
   108c6:	48 8b 85 20 ff ff ff 	mov    -0xe0(%rbp),%rax
   108cd:	b9 00 00 00 00       	mov    $0x0,%ecx
   108d2:	48 89 c7             	mov    %rax,%rdi
   108d5:	e8 a6 c7 ff ff       	callq  d080 <_ZN4llvm12FunctionType3getEPNS_4TypeENS_8ArrayRefIS2_EEb@plt>
   108da:	48 89 85 30 ff ff ff 	mov    %rax,-0xd0(%rbp)
   108e1:	48 8b 85 00 ff ff ff 	mov    -0x100(%rbp),%rax
   108e8:	48 8b 58 10          	mov    0x10(%rax),%rbx
   108ec:	48 8d 55 c0          	lea    -0x40(%rbp),%rdx
   108f0:	48 8d 45 90          	lea    -0x70(%rbp),%rax
   108f4:	48 89 d6             	mov    %rdx,%rsi
   108f7:	48 89 c7             	mov    %rax,%rdi
   108fa:	e8 6d df ff ff       	callq  e86c <_ZN4llvm5TwineC1ERKNSt7__cxx1112basic_stringIcSt11char_traitsIcESaIcEEE>
   108ff:	48 8d 55 90          	lea    -0x70(%rbp),%rdx
   10903:	48 8b 85 30 ff ff ff 	mov    -0xd0(%rbp),%rax
   1090a:	48 89 d9             	mov    %rbx,%rcx
   1090d:	be 00 00 00 00       	mov    $0x0,%esi
   10912:	48 89 c7             	mov    %rax,%rdi
   10915:	e8 56 cd ff ff       	callq  d670 <_ZN4llvm8Function6CreateEPNS_12FunctionTypeENS_11GlobalValue12LinkageTypesERKNS_5TwineERNS_6ModuleE@plt>
   1091a:	48 89 85 18 ff ff ff 	mov    %rax,-0xe8(%rbp)
   10921:	48 8b bd 18 ff ff ff 	mov    -0xe8(%rbp),%rdi
   10928:	48 8b 85 00 ff ff ff 	mov    -0x100(%rbp),%rax
   1092f:	48 8b 48 18          	mov    0x18(%rax),%rcx
   10933:	48 8b 85 00 ff ff ff 	mov    -0x100(%rbp),%rax
   1093a:	48 8b 50 10          	mov    0x10(%rax),%rdx
   1093e:	48 8b 85 00 ff ff ff 	mov    -0x100(%rbp),%rax
   10945:	48 8b 70 08          	mov    0x8(%rax),%rsi
   10949:	48 8d 45 90          	lea    -0x70(%rbp),%rax
   1094d:	49 89 f8             	mov    %rdi,%r8
   10950:	48 89 c7             	mov    %rax,%rdi
   10953:	e8 a6 fb ff ff       	callq  104fe <_ZN7VisitorC1ERN4llvm11LLVMContextERNS0_6ModuleEPNS0_9IRBuilderINS0_14ConstantFolderENS0_24IRBuilderDefaultInserterEEEPNS0_8FunctionE>
   10958:	48 8b 85 f8 fe ff ff 	mov    -0x108(%rbp),%rax
   1095f:	48 89 c7             	mov    %rax,%rdi
   10962:	e8 49 b5 00 00       	callq  1beb0 <_ZN8dzParser15FunctionContext5blockEv>
   10967:	48 89 c2             	mov    %rax,%rdx
   1096a:	48 8d 85 40 ff ff ff 	lea    -0xc0(%rbp),%rax
   10971:	48 8d 4d 90          	lea    -0x70(%rbp),%rcx
   10975:	48 89 ce             	mov    %rcx,%rsi
   10978:	48 89 c7             	mov    %rax,%rdi
   1097b:	e8 ee f1 ff ff       	callq  fb6e <_ZN6antlr44tree24AbstractParseTreeVisitor5visitEPNS0_9ParseTreeE>
   10980:	48 8d 85 40 ff ff ff 	lea    -0xc0(%rbp),%rax
   10987:	48 89 c7             	mov    %rax,%rdi
   1098a:	e8 91 cd ff ff       	callq  d720 <_ZN8antlrcpp3AnyD1Ev@plt>
   1098f:	48 8b 85 18 ff ff ff 	mov    -0xe8(%rbp),%rax
   10996:	be 00 00 00 00       	mov    $0x0,%esi
   1099b:	48 89 c7             	mov    %rax,%rdi
   1099e:	e8 2d d1 ff ff       	callq  dad0 <_ZN4llvm14verifyFunctionERKNS_8FunctionEPNS_11raw_ostreamE@plt>
   109a3:	48 8d 95 18 ff ff ff 	lea    -0xe8(%rbp),%rdx
   109aa:	48 8b 85 08 ff ff ff 	mov    -0xf8(%rbp),%rax
   109b1:	48 89 d6             	mov    %rdx,%rsi
   109b4:	48 89 c7             	mov    %rax,%rdi
   109b7:	e8 8c 10 00 00       	callq  11a48 <_ZN8antlrcpp3AnyC1IPN4llvm8FunctionEEEOT_>
   109bc:	90                   	nop
   109bd:	48 8d 45 90          	lea    -0x70(%rbp),%rax
   109c1:	48 89 c7             	mov    %rax,%rdi
   109c4:	e8 bf 48 00 00       	callq  15288 <_ZN7VisitorD1Ev>
   109c9:	48 8d 85 70 ff ff ff 	lea    -0x90(%rbp),%rax
   109d0:	48 89 c7             	mov    %rax,%rdi
   109d3:	e8 74 0e 00 00       	callq  1184c <_ZNSt6vectorIPN4llvm4TypeESaIS2_EED1Ev>
   109d8:	48 8d 45 c0          	lea    -0x40(%rbp),%rax
   109dc:	48 89 c7             	mov    %rax,%rdi
   109df:	e8 8c ca ff ff       	callq  d470 <_ZNSt7__cxx1112basic_stringIcSt11char_traitsIcESaIcEED1Ev@plt>
   109e4:	48 8d 85 50 ff ff ff 	lea    -0xb0(%rbp),%rax
   109eb:	48 89 c7             	mov    %rax,%rdi
   109ee:	e8 19 0d 00 00       	callq  1170c <_ZNSt6vectorIPN8dzParser15ArgumentContextESaIS2_EED1Ev>
   109f3:	90                   	nop
   109f4:	48 8b 45 e8          	mov    -0x18(%rbp),%rax
   109f8:	64 48 2b 04 25 28 00 	sub    %fs:0x28,%rax
   109ff:	00 00 
   10a01:	74 55                	je     10a58 <_ZN7Visitor13visitFunctionEPN8dzParser15FunctionContextE+0x31a>
   10a03:	eb 4e                	jmp    10a53 <_ZN7Visitor13visitFunctionEPN8dzParser15FunctionContextE+0x315>
   10a05:	48 89 c3             	mov    %rax,%rbx
   10a08:	48 8d 45 90          	lea    -0x70(%rbp),%rax
   10a0c:	48 89 c7             	mov    %rax,%rdi
   10a0f:	e8 74 48 00 00       	callq  15288 <_ZN7VisitorD1Ev>
   10a14:	eb 03                	jmp    10a19 <_ZN7Visitor13visitFunctionEPN8dzParser15FunctionContextE+0x2db>
   10a16:	48 89 c3             	mov    %rax,%rbx
   10a19:	48 8d 85 70 ff ff ff 	lea    -0x90(%rbp),%rax
   10a20:	48 89 c7             	mov    %rax,%rdi
   10a23:	e8 24 0e 00 00       	callq  1184c <_ZNSt6vectorIPN4llvm4TypeESaIS2_EED1Ev>
   10a28:	48 8d 45 c0          	lea    -0x40(%rbp),%rax
   10a2c:	48 89 c7             	mov    %rax,%rdi
   10a2f:	e8 3c ca ff ff       	callq  d470 <_ZNSt7__cxx1112basic_stringIcSt11char_traitsIcESaIcEED1Ev@plt>
   10a34:	eb 03                	jmp    10a39 <_ZN7Visitor13visitFunctionEPN8dzParser15FunctionContextE+0x2fb>
   10a36:	48 89 c3             	mov    %rax,%rbx
   10a39:	48 8d 85 50 ff ff ff 	lea    -0xb0(%rbp),%rax
   10a40:	48 89 c7             	mov    %rax,%rdi
   10a43:	e8 c4 0c 00 00       	callq  1170c <_ZNSt6vectorIPN8dzParser15ArgumentContextESaIS2_EED1Ev>
   10a48:	48 89 d8             	mov    %rbx,%rax
   10a4b:	48 89 c7             	mov    %rax,%rdi
   10a4e:	e8 2d cd ff ff       	callq  d780 <_Unwind_Resume@plt>
   10a53:	e8 68 c6 ff ff       	callq  d0c0 <__stack_chk_fail@plt>
   10a58:	48 8b 85 08 ff ff ff 	mov    -0xf8(%rbp),%rax
   10a5f:	48 8b 5d f8          	mov    -0x8(%rbp),%rbx
   10a63:	c9                   	leaveq 
   10a64:	c3                   	retq   
   10a65:	90                   	nop

0000000000010a66 <_ZN7Visitor13visitTypeNameEPN8dzParser15TypeNameContextE>:
   10a66:	55                   	push   %rbp
   10a67:	48 89 e5             	mov    %rsp,%rbp
   10a6a:	53                   	push   %rbx
   10a6b:	48 83 ec 68          	sub    $0x68,%rsp
   10a6f:	48 89 7d a8          	mov    %rdi,-0x58(%rbp)
   10a73:	48 89 75 a0          	mov    %rsi,-0x60(%rbp)
   10a77:	48 89 55 98          	mov    %rdx,-0x68(%rbp)
   10a7b:	64 48 8b 04 25 28 00 	mov    %fs:0x28,%rax
   10a82:	00 00 
   10a84:	48 89 45 e8          	mov    %rax,-0x18(%rbp)
   10a88:	31 c0                	xor    %eax,%eax
   10a8a:	48 8b 45 98          	mov    -0x68(%rbp),%rax
   10a8e:	48 89 c7             	mov    %rax,%rdi
   10a91:	e8 fa ec 00 00       	callq  1f790 <_ZN8dzParser15TypeNameContext2IDEv>
   10a96:	48 8b 10             	mov    (%rax),%rdx
   10a99:	48 83 c2 38          	add    $0x38,%rdx
   10a9d:	48 8b 0a             	mov    (%rdx),%rcx
   10aa0:	48 8d 55 c0          	lea    -0x40(%rbp),%rdx
   10aa4:	48 89 c6             	mov    %rax,%rsi
   10aa7:	48 89 d7             	mov    %rdx,%rdi
   10aaa:	ff d1                	callq  *%rcx
   10aac:	48 8d 45 c0          	lea    -0x40(%rbp),%rax
   10ab0:	48 8d 35 af 98 01 00 	lea    0x198af(%rip),%rsi        # 2a366 <_ZStL10adopt_lock+0x3>
   10ab7:	48 89 c7             	mov    %rax,%rdi
